---
triple:          'arm64-apple-darwin'
binary-path:     app
relocations:
  - { offsetInCU: 0x3F, offset: 0x3F, size: 0x8, addend: 0x0, symName: _window, symObjAddr: 0x1BF70, symBinAddr: 0x10001C010, symSize: 0x0 }
  - { offsetInCU: 0x193A, offset: 0x193A, size: 0x8, addend: 0x0, symName: __ZN3glm6rotateIfLNS_9qualifierE0EEENS_3matILi4ELi4ET_XT0_EEERKS4_S3_RKNS_3vecILi3ES3_XT0_EEE, symObjAddr: 0xCA0, symBinAddr: 0x100004D34, symSize: 0x8C0 }
  - { offsetInCU: 0x19FA, offset: 0x19FA, size: 0x8, addend: 0x0, symName: __ZN3glm5scaleIfLNS_9qualifierE0EEENS_3matILi4ELi4ET_XT0_EEERKNS_3vecILi3ES3_XT0_EEE, symObjAddr: 0x15D8, symBinAddr: 0x10000566C, symSize: 0x48 }
  - { offsetInCU: 0x1A39, offset: 0x1A39, size: 0x8, addend: 0x0, symName: __ZN3glmmlIfLNS_9qualifierE0EEENS_3matILi4ELi4ET_XT0_EEERKS4_S6_, symObjAddr: 0x1654, symBinAddr: 0x1000056E8, symSize: 0x5AC }
  - { offsetInCU: 0x1B17, offset: 0x1B17, size: 0x8, addend: 0x0, symName: __ZN3glm9normalizeILi3EfLNS_9qualifierE0EEENS_3vecIXT_ET0_XT1_EEERKS4_, symObjAddr: 0x2E20, symBinAddr: 0x100006EB4, symSize: 0x3C }
  - { offsetInCU: 0x1B60, offset: 0x1B60, size: 0x8, addend: 0x0, symName: __ZN3glmmlIfLNS_9qualifierE0EEENS_3vecILi3ET_XT0_EEES3_RKS4_, symObjAddr: 0x2E5C, symBinAddr: 0x100006EF0, symSize: 0x64 }
  - { offsetInCU: 0x1BB0, offset: 0x1BB0, size: 0x8, addend: 0x0, symName: __ZN3glmplIfLNS_9qualifierE0EEENS_3vecILi4ET_XT0_EEERKS4_S6_, symObjAddr: 0x2FC8, symBinAddr: 0x10000705C, symSize: 0x50 }
  - { offsetInCU: 0x1C00, offset: 0x1C00, size: 0x8, addend: 0x0, symName: __ZN3glmmlIfLNS_9qualifierE0EEENS_3vecILi4ET_XT0_EEERKS4_RKS3_, symObjAddr: 0x3018, symBinAddr: 0x1000070AC, symSize: 0x54 }
  - { offsetInCU: 0x1D5E, offset: 0x1D5E, size: 0x8, addend: 0x0, symName: __ZN3glmmlIfLNS_9qualifierE0EEENS_3vecILi3ET_XT0_EEERKS4_S3_, symObjAddr: 0x3138, symBinAddr: 0x1000071CC, symSize: 0x64 }
  - { offsetInCU: 0x1DAE, offset: 0x1DAE, size: 0x8, addend: 0x0, symName: __ZN3glm11inversesqrtIfEET_S1_, symObjAddr: 0x319C, symBinAddr: 0x100007230, symSize: 0x30 }
  - { offsetInCU: 0x1DE3, offset: 0x1DE3, size: 0x8, addend: 0x0, symName: __ZN3glm3dotILi3EfLNS_9qualifierE0EEET0_RKNS_3vecIXT_ES2_XT1_EEES6_, symObjAddr: 0x31CC, symBinAddr: 0x100007260, symSize: 0x2C }
  - { offsetInCU: 0x1E3A, offset: 0x1E3A, size: 0x8, addend: 0x0, symName: __ZN3glmmlIfLNS_9qualifierE0EEENS_3vecILi3ET_XT0_EEERKS4_S6_, symObjAddr: 0x32D8, symBinAddr: 0x10000736C, symSize: 0x70 }
  - { offsetInCU: 0x1E8A, offset: 0x1E8A, size: 0x8, addend: 0x0, symName: __ZN3glm5scaleIfLNS_9qualifierE0EEENS_3matILi4ELi4ET_XT0_EEERKS4_RKNS_3vecILi3ES3_XT0_EEE, symObjAddr: 0x364C, symBinAddr: 0x1000076E0, symSize: 0x144 }
  - { offsetInCU: 0x49F0, offset: 0x49F0, size: 0x8, addend: 0x0, symName: __ZNSt3__112__to_addressB8ue170006IN3glm3vecILi3EfLNS1_9qualifierE0EEEEEPT_S6_, symObjAddr: 0x22C0, symBinAddr: 0x100006354, symSize: 0x14 }
  - { offsetInCU: 0x4A25, offset: 0x4A25, size: 0x8, addend: 0x0, symName: __ZNSt3__119__libcpp_deallocateB8ue170006EPvmm, symObjAddr: 0x2374, symBinAddr: 0x100006408, symSize: 0x30 }
  - { offsetInCU: 0x4A6D, offset: 0x4A6D, size: 0x8, addend: 0x0, symName: __ZNSt3__127__do_deallocate_handle_sizeB8ue170006IJEEEvPvmDpT_, symObjAddr: 0x23A4, symBinAddr: 0x100006438, symSize: 0x28 }
  - { offsetInCU: 0x4AAB, offset: 0x4AAB, size: 0x8, addend: 0x0, symName: __ZNSt3__124__libcpp_operator_deleteB8ue170006IJPvEEEvDpT_, symObjAddr: 0x23CC, symBinAddr: 0x100006460, symSize: 0x24 }
  - { offsetInCU: 0x4AE0, offset: 0x4AE0, size: 0x8, addend: 0x0, symName: __ZNSt3__112__to_addressB8ue170006IN3glm3vecILi2EfLNS1_9qualifierE0EEEEEPT_S6_, symObjAddr: 0x2934, symBinAddr: 0x1000069C8, symSize: 0x14 }
  - { offsetInCU: 0x6FBC, offset: 0x6FBC, size: 0x8, addend: 0x0, symName: _main, symObjAddr: 0x0, symBinAddr: 0x100004094, symSize: 0xBA8 }
  - { offsetInCU: 0x713D, offset: 0x713D, size: 0x8, addend: 0x0, symName: __ZNSt3__16vectorIN3glm3vecILi3EfLNS1_9qualifierE0EEENS_9allocatorIS4_EEEC1B8ue170006Ev, symObjAddr: 0xBA8, symBinAddr: 0x100004C3C, symSize: 0x2C }
  - { offsetInCU: 0x7165, offset: 0x7165, size: 0x8, addend: 0x0, symName: __ZNSt3__16vectorIN3glm3vecILi2EfLNS1_9qualifierE0EEENS_9allocatorIS4_EEEC1B8ue170006Ev, symObjAddr: 0xBD4, symBinAddr: 0x100004C68, symSize: 0x2C }
  - { offsetInCU: 0x718D, offset: 0x718D, size: 0x8, addend: 0x0, symName: __ZNKSt3__16vectorIN3glm3vecILi3EfLNS1_9qualifierE0EEENS_9allocatorIS4_EEE4sizeB8ue170006Ev, symObjAddr: 0xC00, symBinAddr: 0x100004C94, symSize: 0x28 }
  - { offsetInCU: 0x71B1, offset: 0x71B1, size: 0x8, addend: 0x0, symName: __ZNSt3__16vectorIN3glm3vecILi3EfLNS1_9qualifierE0EEENS_9allocatorIS4_EEEixB8ue170006Em, symObjAddr: 0xC28, symBinAddr: 0x100004CBC, symSize: 0x2C }
  - { offsetInCU: 0x71E6, offset: 0x71E6, size: 0x8, addend: 0x0, symName: __ZNKSt3__16vectorIN3glm3vecILi2EfLNS1_9qualifierE0EEENS_9allocatorIS4_EEE4sizeB8ue170006Ev, symObjAddr: 0xC54, symBinAddr: 0x100004CE8, symSize: 0x28 }
  - { offsetInCU: 0x720A, offset: 0x720A, size: 0x8, addend: 0x0, symName: __ZNSt3__16vectorIN3glm3vecILi2EfLNS1_9qualifierE0EEENS_9allocatorIS4_EEEixB8ue170006Em, symObjAddr: 0xC7C, symBinAddr: 0x100004D10, symSize: 0x24 }
  - { offsetInCU: 0x723F, offset: 0x723F, size: 0x8, addend: 0x0, symName: __ZN3glm3matILi4ELi4EfLNS_9qualifierE0EEC1ERKf, symObjAddr: 0x1560, symBinAddr: 0x1000055F4, symSize: 0x34 }
  - { offsetInCU: 0x7276, offset: 0x7276, size: 0x8, addend: 0x0, symName: __ZN3glm3vecILi3EfLNS_9qualifierE0EEC1IiiiEET_T0_T1_, symObjAddr: 0x1594, symBinAddr: 0x100005628, symSize: 0x44 }
  - { offsetInCU: 0x72E5, offset: 0x72E5, size: 0x8, addend: 0x0, symName: __ZN3glm3vecILi3EfLNS_9qualifierE0EEC1Ef, symObjAddr: 0x1620, symBinAddr: 0x1000056B4, symSize: 0x34 }
  - { offsetInCU: 0x731D, offset: 0x731D, size: 0x8, addend: 0x0, symName: __ZN3glm3matILi4ELi4EfLNS_9qualifierE0EEixEi, symObjAddr: 0x1C00, symBinAddr: 0x100005C94, symSize: 0x78 }
  - { offsetInCU: 0x7352, offset: 0x7352, size: 0x8, addend: 0x0, symName: __ZN3glm3vecILi4EfLNS_9qualifierE0EEixEi, symObjAddr: 0x1C78, symBinAddr: 0x100005D0C, symSize: 0x10C }
  - { offsetInCU: 0x7387, offset: 0x7387, size: 0x8, addend: 0x0, symName: __ZNSt3__16vectorIN3glm3vecILi3EfLNS1_9qualifierE0EEENS_9allocatorIS4_EEED1B8ue170006Ev, symObjAddr: 0x1D94, symBinAddr: 0x100005E28, symSize: 0x2C }
  - { offsetInCU: 0x73AF, offset: 0x73AF, size: 0x8, addend: 0x0, symName: __ZNSt3__16vectorIN3glm3vecILi2EfLNS1_9qualifierE0EEENS_9allocatorIS4_EEED1B8ue170006Ev, symObjAddr: 0x1DC0, symBinAddr: 0x100005E54, symSize: 0x2C }
  - { offsetInCU: 0x73D7, offset: 0x73D7, size: 0x8, addend: 0x0, symName: __ZNSt3__16vectorIN3glm3vecILi3EfLNS1_9qualifierE0EEENS_9allocatorIS4_EEEC2B8ue170006Ev, symObjAddr: 0x1DEC, symBinAddr: 0x100005E80, symSize: 0x4C }
  - { offsetInCU: 0x7409, offset: 0x7409, size: 0x8, addend: 0x0, symName: __ZNSt3__117__compressed_pairIPN3glm3vecILi3EfLNS1_9qualifierE0EEENS_9allocatorIS4_EEEC1B8ue170006IDnNS_18__default_init_tagEEEOT_OT0_, symObjAddr: 0x1E38, symBinAddr: 0x100005ECC, symSize: 0x3C }
  - { offsetInCU: 0x745F, offset: 0x745F, size: 0x8, addend: 0x0, symName: __ZNSt3__117__compressed_pairIPN3glm3vecILi3EfLNS1_9qualifierE0EEENS_9allocatorIS4_EEEC2B8ue170006IDnNS_18__default_init_tagEEEOT_OT0_, symObjAddr: 0x1E80, symBinAddr: 0x100005F14, symSize: 0x40 }
  - { offsetInCU: 0x74B5, offset: 0x74B5, size: 0x8, addend: 0x0, symName: __ZNSt3__122__compressed_pair_elemIPN3glm3vecILi3EfLNS1_9qualifierE0EEELi0ELb0EEC2B8ue170006IDnvEEOT_, symObjAddr: 0x1EC0, symBinAddr: 0x100005F54, symSize: 0x1C }
  - { offsetInCU: 0x74F5, offset: 0x74F5, size: 0x8, addend: 0x0, symName: __ZNSt3__122__compressed_pair_elemINS_9allocatorIN3glm3vecILi3EfLNS2_9qualifierE0EEEEELi1ELb1EEC2B8ue170006ENS_18__default_init_tagE, symObjAddr: 0x1EDC, symBinAddr: 0x100005F70, symSize: 0x2C }
  - { offsetInCU: 0x7527, offset: 0x7527, size: 0x8, addend: 0x0, symName: __ZNSt3__19allocatorIN3glm3vecILi3EfLNS1_9qualifierE0EEEEC2B8ue170006Ev, symObjAddr: 0x1F08, symBinAddr: 0x100005F9C, symSize: 0x2C }
  - { offsetInCU: 0x754F, offset: 0x754F, size: 0x8, addend: 0x0, symName: __ZNSt3__116__non_trivial_ifILb1ENS_9allocatorIN3glm3vecILi3EfLNS2_9qualifierE0EEEEEEC2B8ue170006Ev, symObjAddr: 0x1F34, symBinAddr: 0x100005FC8, symSize: 0x14 }
  - { offsetInCU: 0x7577, offset: 0x7577, size: 0x8, addend: 0x0, symName: __ZNSt3__16vectorIN3glm3vecILi3EfLNS1_9qualifierE0EEENS_9allocatorIS4_EEED2B8ue170006Ev, symObjAddr: 0x1F48, symBinAddr: 0x100005FDC, symSize: 0x44 }
  - { offsetInCU: 0x759F, offset: 0x759F, size: 0x8, addend: 0x0, symName: __ZNSt3__16vectorIN3glm3vecILi3EfLNS1_9qualifierE0EEENS_9allocatorIS4_EEE16__destroy_vectorC1B8ue170006ERS7_, symObjAddr: 0x1F8C, symBinAddr: 0x100006020, symSize: 0x34 }
  - { offsetInCU: 0x75D6, offset: 0x75D6, size: 0x8, addend: 0x0, symName: __ZNSt3__16vectorIN3glm3vecILi3EfLNS1_9qualifierE0EEENS_9allocatorIS4_EEE16__destroy_vectorclB8ue170006Ev, symObjAddr: 0x1FC0, symBinAddr: 0x100006054, symSize: 0x90 }
  - { offsetInCU: 0x75FA, offset: 0x75FA, size: 0x8, addend: 0x0, symName: __ZNSt3__16vectorIN3glm3vecILi3EfLNS1_9qualifierE0EEENS_9allocatorIS4_EEE16__destroy_vectorC2B8ue170006ERS7_, symObjAddr: 0x2050, symBinAddr: 0x1000060E4, symSize: 0x20 }
  - { offsetInCU: 0x7631, offset: 0x7631, size: 0x8, addend: 0x0, symName: __ZNSt3__16vectorIN3glm3vecILi3EfLNS1_9qualifierE0EEENS_9allocatorIS4_EEE7__clearB8ue170006Ev, symObjAddr: 0x2070, symBinAddr: 0x100006104, symSize: 0x28 }
  - { offsetInCU: 0x7655, offset: 0x7655, size: 0x8, addend: 0x0, symName: __ZNKSt3__16vectorIN3glm3vecILi3EfLNS1_9qualifierE0EEENS_9allocatorIS4_EEE17__annotate_deleteB8ue170006Ev, symObjAddr: 0x2098, symBinAddr: 0x10000612C, symSize: 0xD4 }
  - { offsetInCU: 0x7679, offset: 0x7679, size: 0x8, addend: 0x0, symName: __ZNSt3__116allocator_traitsINS_9allocatorIN3glm3vecILi3EfLNS2_9qualifierE0EEEEEE10deallocateB8ue170006ERS6_PS5_m, symObjAddr: 0x216C, symBinAddr: 0x100006200, symSize: 0x34 }
  - { offsetInCU: 0x76BA, offset: 0x76BA, size: 0x8, addend: 0x0, symName: __ZNSt3__16vectorIN3glm3vecILi3EfLNS1_9qualifierE0EEENS_9allocatorIS4_EEE7__allocB8ue170006Ev, symObjAddr: 0x21A0, symBinAddr: 0x100006234, symSize: 0x28 }
  - { offsetInCU: 0x76DE, offset: 0x76DE, size: 0x8, addend: 0x0, symName: __ZNKSt3__16vectorIN3glm3vecILi3EfLNS1_9qualifierE0EEENS_9allocatorIS4_EEE8capacityB8ue170006Ev, symObjAddr: 0x21C8, symBinAddr: 0x10000625C, symSize: 0x40 }
  - { offsetInCU: 0x7702, offset: 0x7702, size: 0x8, addend: 0x0, symName: __ZNSt3__16vectorIN3glm3vecILi3EfLNS1_9qualifierE0EEENS_9allocatorIS4_EEE22__base_destruct_at_endB8ue170006EPS4_, symObjAddr: 0x2208, symBinAddr: 0x10000629C, symSize: 0x8C }
  - { offsetInCU: 0x7744, offset: 0x7744, size: 0x8, addend: 0x0, symName: __ZNSt3__116allocator_traitsINS_9allocatorIN3glm3vecILi3EfLNS2_9qualifierE0EEEEEE7destroyB8ue170006IS5_vEEvRS6_PT_, symObjAddr: 0x2294, symBinAddr: 0x100006328, symSize: 0x2C }
  - { offsetInCU: 0x7780, offset: 0x7780, size: 0x8, addend: 0x0, symName: __ZNSt3__19allocatorIN3glm3vecILi3EfLNS1_9qualifierE0EEEE7destroyB8ue170006EPS4_, symObjAddr: 0x22D4, symBinAddr: 0x100006368, symSize: 0x14 }
  - { offsetInCU: 0x77B2, offset: 0x77B2, size: 0x8, addend: 0x0, symName: __ZNKSt3__16vectorIN3glm3vecILi3EfLNS1_9qualifierE0EEENS_9allocatorIS4_EEE31__annotate_contiguous_containerB8ue170006EPKvS9_S9_S9_, symObjAddr: 0x22E8, symBinAddr: 0x10000637C, symSize: 0x20 }
  - { offsetInCU: 0x7802, offset: 0x7802, size: 0x8, addend: 0x0, symName: __ZNKSt3__16vectorIN3glm3vecILi3EfLNS1_9qualifierE0EEENS_9allocatorIS4_EEE4dataB8ue170006Ev, symObjAddr: 0x2308, symBinAddr: 0x10000639C, symSize: 0x28 }
  - { offsetInCU: 0x7826, offset: 0x7826, size: 0x8, addend: 0x0, symName: __ZNSt3__19allocatorIN3glm3vecILi3EfLNS1_9qualifierE0EEEE10deallocateB8ue170006EPS4_m, symObjAddr: 0x2330, symBinAddr: 0x1000063C4, symSize: 0x44 }
  - { offsetInCU: 0x7866, offset: 0x7866, size: 0x8, addend: 0x0, symName: __ZNSt3__117__compressed_pairIPN3glm3vecILi3EfLNS1_9qualifierE0EEENS_9allocatorIS4_EEE6secondB8ue170006Ev, symObjAddr: 0x23F0, symBinAddr: 0x100006484, symSize: 0x24 }
  - { offsetInCU: 0x788A, offset: 0x788A, size: 0x8, addend: 0x0, symName: __ZNSt3__122__compressed_pair_elemINS_9allocatorIN3glm3vecILi3EfLNS2_9qualifierE0EEEEELi1ELb1EE5__getB8ue170006Ev, symObjAddr: 0x2414, symBinAddr: 0x1000064A8, symSize: 0x14 }
  - { offsetInCU: 0x78AE, offset: 0x78AE, size: 0x8, addend: 0x0, symName: __ZNKSt3__16vectorIN3glm3vecILi3EfLNS1_9qualifierE0EEENS_9allocatorIS4_EEE9__end_capB8ue170006Ev, symObjAddr: 0x2428, symBinAddr: 0x1000064BC, symSize: 0x28 }
  - { offsetInCU: 0x78D2, offset: 0x78D2, size: 0x8, addend: 0x0, symName: __ZNKSt3__117__compressed_pairIPN3glm3vecILi3EfLNS1_9qualifierE0EEENS_9allocatorIS4_EEE5firstB8ue170006Ev, symObjAddr: 0x2450, symBinAddr: 0x1000064E4, symSize: 0x24 }
  - { offsetInCU: 0x78F6, offset: 0x78F6, size: 0x8, addend: 0x0, symName: __ZNKSt3__122__compressed_pair_elemIPN3glm3vecILi3EfLNS1_9qualifierE0EEELi0ELb0EE5__getB8ue170006Ev, symObjAddr: 0x2474, symBinAddr: 0x100006508, symSize: 0x14 }
  - { offsetInCU: 0x791A, offset: 0x791A, size: 0x8, addend: 0x0, symName: __ZNSt3__16vectorIN3glm3vecILi2EfLNS1_9qualifierE0EEENS_9allocatorIS4_EEEC2B8ue170006Ev, symObjAddr: 0x2488, symBinAddr: 0x10000651C, symSize: 0x4C }
  - { offsetInCU: 0x7942, offset: 0x7942, size: 0x8, addend: 0x0, symName: __ZNSt3__117__compressed_pairIPN3glm3vecILi2EfLNS1_9qualifierE0EEENS_9allocatorIS4_EEEC1B8ue170006IDnNS_18__default_init_tagEEEOT_OT0_, symObjAddr: 0x24D4, symBinAddr: 0x100006568, symSize: 0x3C }
  - { offsetInCU: 0x7998, offset: 0x7998, size: 0x8, addend: 0x0, symName: __ZNSt3__117__compressed_pairIPN3glm3vecILi2EfLNS1_9qualifierE0EEENS_9allocatorIS4_EEEC2B8ue170006IDnNS_18__default_init_tagEEEOT_OT0_, symObjAddr: 0x2510, symBinAddr: 0x1000065A4, symSize: 0x40 }
  - { offsetInCU: 0x79EE, offset: 0x79EE, size: 0x8, addend: 0x0, symName: __ZNSt3__122__compressed_pair_elemIPN3glm3vecILi2EfLNS1_9qualifierE0EEELi0ELb0EEC2B8ue170006IDnvEEOT_, symObjAddr: 0x2550, symBinAddr: 0x1000065E4, symSize: 0x1C }
  - { offsetInCU: 0x7A2E, offset: 0x7A2E, size: 0x8, addend: 0x0, symName: __ZNSt3__122__compressed_pair_elemINS_9allocatorIN3glm3vecILi2EfLNS2_9qualifierE0EEEEELi1ELb1EEC2B8ue170006ENS_18__default_init_tagE, symObjAddr: 0x256C, symBinAddr: 0x100006600, symSize: 0x2C }
  - { offsetInCU: 0x7A60, offset: 0x7A60, size: 0x8, addend: 0x0, symName: __ZNSt3__19allocatorIN3glm3vecILi2EfLNS1_9qualifierE0EEEEC2B8ue170006Ev, symObjAddr: 0x2598, symBinAddr: 0x10000662C, symSize: 0x2C }
  - { offsetInCU: 0x7A88, offset: 0x7A88, size: 0x8, addend: 0x0, symName: __ZNSt3__116__non_trivial_ifILb1ENS_9allocatorIN3glm3vecILi2EfLNS2_9qualifierE0EEEEEEC2B8ue170006Ev, symObjAddr: 0x25C4, symBinAddr: 0x100006658, symSize: 0x14 }
  - { offsetInCU: 0x7AB0, offset: 0x7AB0, size: 0x8, addend: 0x0, symName: __ZNSt3__16vectorIN3glm3vecILi2EfLNS1_9qualifierE0EEENS_9allocatorIS4_EEED2B8ue170006Ev, symObjAddr: 0x25D8, symBinAddr: 0x10000666C, symSize: 0x44 }
  - { offsetInCU: 0x7AD8, offset: 0x7AD8, size: 0x8, addend: 0x0, symName: __ZNSt3__16vectorIN3glm3vecILi2EfLNS1_9qualifierE0EEENS_9allocatorIS4_EEE16__destroy_vectorC1B8ue170006ERS7_, symObjAddr: 0x261C, symBinAddr: 0x1000066B0, symSize: 0x34 }
  - { offsetInCU: 0x7B0F, offset: 0x7B0F, size: 0x8, addend: 0x0, symName: __ZNSt3__16vectorIN3glm3vecILi2EfLNS1_9qualifierE0EEENS_9allocatorIS4_EEE16__destroy_vectorclB8ue170006Ev, symObjAddr: 0x2650, symBinAddr: 0x1000066E4, symSize: 0x90 }
  - { offsetInCU: 0x7B33, offset: 0x7B33, size: 0x8, addend: 0x0, symName: __ZNSt3__16vectorIN3glm3vecILi2EfLNS1_9qualifierE0EEENS_9allocatorIS4_EEE16__destroy_vectorC2B8ue170006ERS7_, symObjAddr: 0x26E0, symBinAddr: 0x100006774, symSize: 0x20 }
  - { offsetInCU: 0x7B6A, offset: 0x7B6A, size: 0x8, addend: 0x0, symName: __ZNSt3__16vectorIN3glm3vecILi2EfLNS1_9qualifierE0EEENS_9allocatorIS4_EEE7__clearB8ue170006Ev, symObjAddr: 0x2700, symBinAddr: 0x100006794, symSize: 0x28 }
  - { offsetInCU: 0x7B8E, offset: 0x7B8E, size: 0x8, addend: 0x0, symName: __ZNKSt3__16vectorIN3glm3vecILi2EfLNS1_9qualifierE0EEENS_9allocatorIS4_EEE17__annotate_deleteB8ue170006Ev, symObjAddr: 0x2728, symBinAddr: 0x1000067BC, symSize: 0xB8 }
  - { offsetInCU: 0x7BB2, offset: 0x7BB2, size: 0x8, addend: 0x0, symName: __ZNSt3__116allocator_traitsINS_9allocatorIN3glm3vecILi2EfLNS2_9qualifierE0EEEEEE10deallocateB8ue170006ERS6_PS5_m, symObjAddr: 0x27E0, symBinAddr: 0x100006874, symSize: 0x34 }
  - { offsetInCU: 0x7BF3, offset: 0x7BF3, size: 0x8, addend: 0x0, symName: __ZNSt3__16vectorIN3glm3vecILi2EfLNS1_9qualifierE0EEENS_9allocatorIS4_EEE7__allocB8ue170006Ev, symObjAddr: 0x2814, symBinAddr: 0x1000068A8, symSize: 0x28 }
  - { offsetInCU: 0x7C17, offset: 0x7C17, size: 0x8, addend: 0x0, symName: __ZNKSt3__16vectorIN3glm3vecILi2EfLNS1_9qualifierE0EEENS_9allocatorIS4_EEE8capacityB8ue170006Ev, symObjAddr: 0x283C, symBinAddr: 0x1000068D0, symSize: 0x40 }
  - { offsetInCU: 0x7C3B, offset: 0x7C3B, size: 0x8, addend: 0x0, symName: __ZNSt3__16vectorIN3glm3vecILi2EfLNS1_9qualifierE0EEENS_9allocatorIS4_EEE22__base_destruct_at_endB8ue170006EPS4_, symObjAddr: 0x287C, symBinAddr: 0x100006910, symSize: 0x8C }
  - { offsetInCU: 0x7C7D, offset: 0x7C7D, size: 0x8, addend: 0x0, symName: __ZNSt3__116allocator_traitsINS_9allocatorIN3glm3vecILi2EfLNS2_9qualifierE0EEEEEE7destroyB8ue170006IS5_vEEvRS6_PT_, symObjAddr: 0x2908, symBinAddr: 0x10000699C, symSize: 0x2C }
  - { offsetInCU: 0x7CB9, offset: 0x7CB9, size: 0x8, addend: 0x0, symName: __ZNSt3__19allocatorIN3glm3vecILi2EfLNS1_9qualifierE0EEEE7destroyB8ue170006EPS4_, symObjAddr: 0x2948, symBinAddr: 0x1000069DC, symSize: 0x14 }
  - { offsetInCU: 0x7CEB, offset: 0x7CEB, size: 0x8, addend: 0x0, symName: __ZNKSt3__16vectorIN3glm3vecILi2EfLNS1_9qualifierE0EEENS_9allocatorIS4_EEE31__annotate_contiguous_containerB8ue170006EPKvS9_S9_S9_, symObjAddr: 0x295C, symBinAddr: 0x1000069F0, symSize: 0x20 }
  - { offsetInCU: 0x7D3B, offset: 0x7D3B, size: 0x8, addend: 0x0, symName: __ZNKSt3__16vectorIN3glm3vecILi2EfLNS1_9qualifierE0EEENS_9allocatorIS4_EEE4dataB8ue170006Ev, symObjAddr: 0x297C, symBinAddr: 0x100006A10, symSize: 0x28 }
  - { offsetInCU: 0x7D5F, offset: 0x7D5F, size: 0x8, addend: 0x0, symName: __ZNSt3__19allocatorIN3glm3vecILi2EfLNS1_9qualifierE0EEEE10deallocateB8ue170006EPS4_m, symObjAddr: 0x29A4, symBinAddr: 0x100006A38, symSize: 0x40 }
  - { offsetInCU: 0x7D9F, offset: 0x7D9F, size: 0x8, addend: 0x0, symName: __ZNSt3__117__compressed_pairIPN3glm3vecILi2EfLNS1_9qualifierE0EEENS_9allocatorIS4_EEE6secondB8ue170006Ev, symObjAddr: 0x29E4, symBinAddr: 0x100006A78, symSize: 0x24 }
  - { offsetInCU: 0x7DC3, offset: 0x7DC3, size: 0x8, addend: 0x0, symName: __ZNSt3__122__compressed_pair_elemINS_9allocatorIN3glm3vecILi2EfLNS2_9qualifierE0EEEEELi1ELb1EE5__getB8ue170006Ev, symObjAddr: 0x2A08, symBinAddr: 0x100006A9C, symSize: 0x14 }
  - { offsetInCU: 0x7DE7, offset: 0x7DE7, size: 0x8, addend: 0x0, symName: __ZNKSt3__16vectorIN3glm3vecILi2EfLNS1_9qualifierE0EEENS_9allocatorIS4_EEE9__end_capB8ue170006Ev, symObjAddr: 0x2A1C, symBinAddr: 0x100006AB0, symSize: 0x28 }
  - { offsetInCU: 0x7E0B, offset: 0x7E0B, size: 0x8, addend: 0x0, symName: __ZNKSt3__117__compressed_pairIPN3glm3vecILi2EfLNS1_9qualifierE0EEENS_9allocatorIS4_EEE5firstB8ue170006Ev, symObjAddr: 0x2A44, symBinAddr: 0x100006AD8, symSize: 0x24 }
  - { offsetInCU: 0x7E2F, offset: 0x7E2F, size: 0x8, addend: 0x0, symName: __ZNKSt3__122__compressed_pair_elemIPN3glm3vecILi2EfLNS1_9qualifierE0EEELi0ELb0EE5__getB8ue170006Ev, symObjAddr: 0x2A68, symBinAddr: 0x100006AFC, symSize: 0x14 }
  - { offsetInCU: 0x7E53, offset: 0x7E53, size: 0x8, addend: 0x0, symName: __ZN3glm3matILi4ELi4EfLNS_9qualifierE0EEC2ERKf, symObjAddr: 0x2A7C, symBinAddr: 0x100006B10, symSize: 0xA8 }
  - { offsetInCU: 0x7E8A, offset: 0x7E8A, size: 0x8, addend: 0x0, symName: __ZN3glm3vecILi4EfLNS_9qualifierE0EEC1IfiiiEET_T0_T1_T2_, symObjAddr: 0x2B24, symBinAddr: 0x100006BB8, symSize: 0x4C }
  - { offsetInCU: 0x7F10, offset: 0x7F10, size: 0x8, addend: 0x0, symName: __ZN3glm3vecILi4EfLNS_9qualifierE0EEC1IifiiEET_T0_T1_T2_, symObjAddr: 0x2B70, symBinAddr: 0x100006C04, symSize: 0x4C }
  - { offsetInCU: 0x7F96, offset: 0x7F96, size: 0x8, addend: 0x0, symName: __ZN3glm3vecILi4EfLNS_9qualifierE0EEC1IiifiEET_T0_T1_T2_, symObjAddr: 0x2BBC, symBinAddr: 0x100006C50, symSize: 0x4C }
  - { offsetInCU: 0x801C, offset: 0x801C, size: 0x8, addend: 0x0, symName: __ZN3glm3vecILi4EfLNS_9qualifierE0EEC1IiiifEET_T0_T1_T2_, symObjAddr: 0x2C08, symBinAddr: 0x100006C9C, symSize: 0x4C }
  - { offsetInCU: 0x80A2, offset: 0x80A2, size: 0x8, addend: 0x0, symName: __ZN3glm3vecILi4EfLNS_9qualifierE0EEC2IfiiiEET_T0_T1_T2_, symObjAddr: 0x2C54, symBinAddr: 0x100006CE8, symSize: 0x50 }
  - { offsetInCU: 0x8128, offset: 0x8128, size: 0x8, addend: 0x0, symName: __ZN3glm3vecILi4EfLNS_9qualifierE0EEC2IifiiEET_T0_T1_T2_, symObjAddr: 0x2CA4, symBinAddr: 0x100006D38, symSize: 0x50 }
  - { offsetInCU: 0x81AE, offset: 0x81AE, size: 0x8, addend: 0x0, symName: __ZN3glm3vecILi4EfLNS_9qualifierE0EEC2IiifiEET_T0_T1_T2_, symObjAddr: 0x2CF4, symBinAddr: 0x100006D88, symSize: 0x50 }
  - { offsetInCU: 0x8234, offset: 0x8234, size: 0x8, addend: 0x0, symName: __ZN3glm3vecILi4EfLNS_9qualifierE0EEC2IiiifEET_T0_T1_T2_, symObjAddr: 0x2D44, symBinAddr: 0x100006DD8, symSize: 0x50 }
  - { offsetInCU: 0x82BA, offset: 0x82BA, size: 0x8, addend: 0x0, symName: __ZN3glm3vecILi3EfLNS_9qualifierE0EEC2IiiiEET_T0_T1_, symObjAddr: 0x2D94, symBinAddr: 0x100006E28, symSize: 0x44 }
  - { offsetInCU: 0x8329, offset: 0x8329, size: 0x8, addend: 0x0, symName: __Z3cosB8ue170006f, symObjAddr: 0x2DD8, symBinAddr: 0x100006E6C, symSize: 0x24 }
  - { offsetInCU: 0x8357, offset: 0x8357, size: 0x8, addend: 0x0, symName: __Z3sinB8ue170006f, symObjAddr: 0x2DFC, symBinAddr: 0x100006E90, symSize: 0x24 }
  - { offsetInCU: 0x8385, offset: 0x8385, size: 0x8, addend: 0x0, symName: __ZN3glm3vecILi3EfLNS_9qualifierE0EEixEi, symObjAddr: 0x2EC0, symBinAddr: 0x100006F54, symSize: 0x108 }
  - { offsetInCU: 0x83B9, offset: 0x83B9, size: 0x8, addend: 0x0, symName: __ZNK3glm3matILi4ELi4EfLNS_9qualifierE0EEixEi, symObjAddr: 0x306C, symBinAddr: 0x100007100, symSize: 0x78 }
  - { offsetInCU: 0x83EE, offset: 0x83EE, size: 0x8, addend: 0x0, symName: __ZN3glm6detail17compute_normalizeILi3EfLNS_9qualifierE0ELb0EE4callERKNS_3vecILi3EfLS2_0EEE, symObjAddr: 0x30E4, symBinAddr: 0x100007178, symSize: 0x54 }
  - { offsetInCU: 0x8410, offset: 0x8410, size: 0x8, addend: 0x0, symName: __ZN3glm3vecILi3EfLNS_9qualifierE0EEC1Efff, symObjAddr: 0x31F8, symBinAddr: 0x10000728C, symSize: 0x44 }
  - { offsetInCU: 0x8464, offset: 0x8464, size: 0x8, addend: 0x0, symName: __ZN3glm3vecILi3EfLNS_9qualifierE0EEC2Efff, symObjAddr: 0x323C, symBinAddr: 0x1000072D0, symSize: 0x38 }
  - { offsetInCU: 0x84B8, offset: 0x84B8, size: 0x8, addend: 0x0, symName: __Z4sqrtB8ue170006f, symObjAddr: 0x3274, symBinAddr: 0x100007308, symSize: 0x18 }
  - { offsetInCU: 0x84E6, offset: 0x84E6, size: 0x8, addend: 0x0, symName: __ZN3glm6detail11compute_dotINS_3vecILi3EfLNS_9qualifierE0EEEfLb0EE4callERKS4_S7_, symObjAddr: 0x328C, symBinAddr: 0x100007320, symSize: 0x4C }
  - { offsetInCU: 0x8524, offset: 0x8524, size: 0x8, addend: 0x0, symName: __ZN3glm3vecILi3EfLNS_9qualifierE0EE6lengthEv, symObjAddr: 0x3348, symBinAddr: 0x1000073DC, symSize: 0x8 }
  - { offsetInCU: 0x8537, offset: 0x8537, size: 0x8, addend: 0x0, symName: __ZN3glm3vecILi4EfLNS_9qualifierE0EEpLIfEERS2_RKNS0_ILi4ET_LS1_0EEE, symObjAddr: 0x3350, symBinAddr: 0x1000073E4, symSize: 0x58 }
  - { offsetInCU: 0x8576, offset: 0x8576, size: 0x8, addend: 0x0, symName: __ZN3glm6detail16compute_vec4_addIfLNS_9qualifierE0ELb0EE4callERKNS_3vecILi4EfLS2_0EEES7_, symObjAddr: 0x33A8, symBinAddr: 0x10000743C, symSize: 0x88 }
  - { offsetInCU: 0x85A6, offset: 0x85A6, size: 0x8, addend: 0x0, symName: __ZN3glm3vecILi4EfLNS_9qualifierE0EEC1Effff, symObjAddr: 0x3430, symBinAddr: 0x1000074C4, symSize: 0x4C }
  - { offsetInCU: 0x8608, offset: 0x8608, size: 0x8, addend: 0x0, symName: __ZN3glm3vecILi4EfLNS_9qualifierE0EEC2Effff, symObjAddr: 0x347C, symBinAddr: 0x100007510, symSize: 0x44 }
  - { offsetInCU: 0x866A, offset: 0x866A, size: 0x8, addend: 0x0, symName: __ZN3glm3vecILi4EfLNS_9qualifierE0EEmLIfEERS2_T_, symObjAddr: 0x34C0, symBinAddr: 0x100007554, symSize: 0x60 }
  - { offsetInCU: 0x86A9, offset: 0x86A9, size: 0x8, addend: 0x0, symName: __ZN3glm6detail16compute_vec4_mulIfLNS_9qualifierE0ELb0EE4callERKNS_3vecILi4EfLS2_0EEES7_, symObjAddr: 0x3520, symBinAddr: 0x1000075B4, symSize: 0x88 }
  - { offsetInCU: 0x86D9, offset: 0x86D9, size: 0x8, addend: 0x0, symName: __ZN3glm3vecILi4EfLNS_9qualifierE0EEC1Ef, symObjAddr: 0x35A8, symBinAddr: 0x10000763C, symSize: 0x34 }
  - { offsetInCU: 0x8711, offset: 0x8711, size: 0x8, addend: 0x0, symName: __ZN3glm3vecILi4EfLNS_9qualifierE0EEC2Ef, symObjAddr: 0x35DC, symBinAddr: 0x100007670, symSize: 0x38 }
  - { offsetInCU: 0x8749, offset: 0x8749, size: 0x8, addend: 0x0, symName: __ZN3glm3matILi4ELi4EfLNS_9qualifierE0EE6lengthEv, symObjAddr: 0x3614, symBinAddr: 0x1000076A8, symSize: 0x8 }
  - { offsetInCU: 0x875C, offset: 0x875C, size: 0x8, addend: 0x0, symName: __ZN3glm3vecILi3EfLNS_9qualifierE0EEC2Ef, symObjAddr: 0x361C, symBinAddr: 0x1000076B0, symSize: 0x30 }
  - { offsetInCU: 0x8794, offset: 0x8794, size: 0x8, addend: 0x0, symName: __ZNK3glm3vecILi3EfLNS_9qualifierE0EEixEi, symObjAddr: 0x3790, symBinAddr: 0x100007824, symSize: 0x108 }
  - { offsetInCU: 0x87C8, offset: 0x87C8, size: 0x8, addend: 0x0, symName: __ZNK3glm3vecILi4EfLNS_9qualifierE0EEixEi, symObjAddr: 0x3898, symBinAddr: 0x10000792C, symSize: 0x10C }
  - { offsetInCU: 0x87FD, offset: 0x87FD, size: 0x8, addend: 0x0, symName: __ZN3glm3vecILi4EfLNS_9qualifierE0EE6lengthEv, symObjAddr: 0x39B4, symBinAddr: 0x100007A48, symSize: 0x8 }
  - { offsetInCU: 0x3F, offset: 0x88BA, size: 0x8, addend: 0x0, symName: _ViewMatrix, symObjAddr: 0xB35C, symBinAddr: 0x10001C018, symSize: 0x0 }
  - { offsetInCU: 0x2DE, offset: 0x8B59, size: 0x8, addend: 0x0, symName: __ZN3glm5crossIfLNS_9qualifierE0EEENS_3vecILi3ET_XT0_EEERKS4_S6_, symObjAddr: 0x604, symBinAddr: 0x100007F84, symSize: 0x44 }
  - { offsetInCU: 0x32B, offset: 0x8BA6, size: 0x8, addend: 0x0, symName: __ZN3glm11perspectiveIfEENS_3matILi4ELi4ET_LNS_9qualifierE0EEES2_S2_S2_S2_, symObjAddr: 0x754, symBinAddr: 0x100008070, symSize: 0x3C }
  - { offsetInCU: 0x38F, offset: 0x8C0A, size: 0x8, addend: 0x0, symName: __ZN3glm6lookAtIfLNS_9qualifierE0EEENS_3matILi4ELi4ET_XT0_EEERKNS_3vecILi3ES3_XT0_EEES8_S8_, symObjAddr: 0x790, symBinAddr: 0x1000080AC, symSize: 0x34 }
  - { offsetInCU: 0x3EA, offset: 0x8C65, size: 0x8, addend: 0x0, symName: __ZN3glmplIfLNS_9qualifierE0EEENS_3vecILi3ET_XT0_EEERKS4_S6_, symObjAddr: 0x7C4, symBinAddr: 0x1000080E0, symSize: 0x70 }
  - { offsetInCU: 0x4AF, offset: 0x8D2A, size: 0x8, addend: 0x0, symName: __ZN3glm16perspectiveRH_NOIfEENS_3matILi4ELi4ET_LNS_9qualifierE0EEES2_S2_S2_S2_, symObjAddr: 0x998, symBinAddr: 0x100008238, symSize: 0x1CC }
  - { offsetInCU: 0x52B, offset: 0x8DA6, size: 0x8, addend: 0x0, symName: __ZN3glm3absIfEET_S1_, symObjAddr: 0xB64, symBinAddr: 0x100008404, symSize: 0x24 }
  - { offsetInCU: 0x562, offset: 0x8DDD, size: 0x8, addend: 0x0, symName: __ZN3glm8lookAtRHIfLNS_9qualifierE0EEENS_3matILi4ELi4ET_XT0_EEERKNS_3vecILi3ES3_XT0_EEES8_S8_, symObjAddr: 0x10FC, symBinAddr: 0x1000084BC, symSize: 0x2D4 }
  - { offsetInCU: 0x5F7, offset: 0x8E72, size: 0x8, addend: 0x0, symName: __ZN3glmmiIfLNS_9qualifierE0EEENS_3vecILi3ET_XT0_EEERKS4_S6_, symObjAddr: 0x140C, symBinAddr: 0x100008790, symSize: 0x70 }
  - { offsetInCU: 0x698, offset: 0x8F13, size: 0x8, addend: 0x0, symName: _ProjectionMatrix, symObjAddr: 0xB39C, symBinAddr: 0x10001C058, symSize: 0x0 }
  - { offsetInCU: 0x6AD, offset: 0x8F28, size: 0x8, addend: 0x0, symName: _position, symObjAddr: 0xB3DC, symBinAddr: 0x10001C098, symSize: 0x0 }
  - { offsetInCU: 0x6C2, offset: 0x8F3D, size: 0x8, addend: 0x0, symName: _horizontalAngle, symObjAddr: 0x1660, symBinAddr: 0x10001C000, symSize: 0x0 }
  - { offsetInCU: 0x6D7, offset: 0x8F52, size: 0x8, addend: 0x0, symName: _verticalAngle, symObjAddr: 0xB3E8, symBinAddr: 0x10001C0A4, symSize: 0x0 }
  - { offsetInCU: 0x6EC, offset: 0x8F67, size: 0x8, addend: 0x0, symName: _initialFoV, symObjAddr: 0x1664, symBinAddr: 0x10001C004, symSize: 0x0 }
  - { offsetInCU: 0x701, offset: 0x8F7C, size: 0x8, addend: 0x0, symName: _speed, symObjAddr: 0x1668, symBinAddr: 0x10001C008, symSize: 0x0 }
  - { offsetInCU: 0x716, offset: 0x8F91, size: 0x8, addend: 0x0, symName: _mouseSpeed, symObjAddr: 0x166C, symBinAddr: 0x10001C00C, symSize: 0x0 }
  - { offsetInCU: 0x71F, offset: 0x8F9A, size: 0x8, addend: 0x0, symName: __Z25computeMatricesFromInputsv, symObjAddr: 0x8C, symBinAddr: 0x100007A98, symSize: 0x4A8 }
  - { offsetInCU: 0x744, offset: 0x8FBF, size: 0x8, addend: 0x0, symName: __ZZ25computeMatricesFromInputsvE8lastTime, symObjAddr: 0xB3F0, symBinAddr: 0x10001C0C8, symSize: 0x0 }
  - { offsetInCU: 0x1A80, offset: 0xA2FB, size: 0x8, addend: 0x0, symName: __Z13getViewMatrixv, symObjAddr: 0x0, symBinAddr: 0x100007A50, symSize: 0x24 }
  - { offsetInCU: 0x1A9D, offset: 0xA318, size: 0x8, addend: 0x0, symName: __Z19getProjectionMatrixv, symObjAddr: 0x24, symBinAddr: 0x100007A74, symSize: 0x24 }
  - { offsetInCU: 0x1ABA, offset: 0xA335, size: 0x8, addend: 0x0, symName: __ZN3glm3vecILi3EfLNS_9qualifierE0EEC1IfifEET_T0_T1_, symObjAddr: 0x5C0, symBinAddr: 0x100007F40, symSize: 0x44 }
  - { offsetInCU: 0x1B29, offset: 0xA3A4, size: 0x8, addend: 0x0, symName: __ZN3glm3vecILi3EfLNS_9qualifierE0EEpLIfEERS2_RKNS0_ILi3ET_LS1_0EEE, symObjAddr: 0x6AC, symBinAddr: 0x100007FC8, symSize: 0x54 }
  - { offsetInCU: 0x1B66, offset: 0xA3E1, size: 0x8, addend: 0x0, symName: __ZN3glm3vecILi3EfLNS_9qualifierE0EEmIIfEERS2_RKNS0_ILi3ET_LS1_0EEE, symObjAddr: 0x700, symBinAddr: 0x10000801C, symSize: 0x54 }
  - { offsetInCU: 0x1BA4, offset: 0xA41F, size: 0x8, addend: 0x0, symName: __ZN3glm3vecILi3EfLNS_9qualifierE0EEC2IfifEET_T0_T1_, symObjAddr: 0x8B0, symBinAddr: 0x100008150, symSize: 0x3C }
  - { offsetInCU: 0x1C13, offset: 0xA48E, size: 0x8, addend: 0x0, symName: __ZN3glm6detail13compute_crossIfLNS_9qualifierE0ELb0EE4callERKNS_3vecILi3EfLS2_0EEES7_, symObjAddr: 0x8EC, symBinAddr: 0x10000818C, symSize: 0xAC }
  - { offsetInCU: 0x1C57, offset: 0xA4D2, size: 0x8, addend: 0x0, symName: __ZNSt3__114numeric_limitsIfE7epsilonB8ue170006Ev, symObjAddr: 0xB88, symBinAddr: 0x100008428, symSize: 0x14 }
  - { offsetInCU: 0x1C6A, offset: 0xA4E5, size: 0x8, addend: 0x0, symName: __Z3tanB8ue170006f, symObjAddr: 0xB9C, symBinAddr: 0x10000843C, symSize: 0x24 }
  - { offsetInCU: 0x1C98, offset: 0xA513, size: 0x8, addend: 0x0, symName: __ZN3glm6detail11compute_absIfLb1EE4callEf, symObjAddr: 0xD88, symBinAddr: 0x100008470, symSize: 0x44 }
  - { offsetInCU: 0x1CBA, offset: 0xA535, size: 0x8, addend: 0x0, symName: __ZNSt3__123__libcpp_numeric_limitsIfLb1EE7epsilonB8ue170006Ev, symObjAddr: 0xDCC, symBinAddr: 0x1000084B4, symSize: 0x8 }
  - { offsetInCU: 0x743B, offset: 0x11988, size: 0x8, addend: 0x0, symName: __ZNSt3__112__to_addressB8ue170006IjEEPT_S2_, symObjAddr: 0xE70, symBinAddr: 0x1000095A0, symSize: 0x14 }
  - { offsetInCU: 0x7470, offset: 0x119BD, size: 0x8, addend: 0x0, symName: __ZNSt3__13maxB8ue170006ImEERKT_S3_S3_, symObjAddr: 0x223C, symBinAddr: 0x100009C98, symSize: 0x2C }
  - { offsetInCU: 0x74B3, offset: 0x11A00, size: 0x8, addend: 0x0, symName: __ZNSt3__13minB8ue170006ImEERKT_S3_S3_, symObjAddr: 0x2268, symBinAddr: 0x100009CC4, symSize: 0x2C }
  - { offsetInCU: 0x76F7, offset: 0x11C44, size: 0x8, addend: 0x0, symName: __ZNSt3__13minB8ue170006ImNS_6__lessIvvEEEERKT_S5_S5_T0_, symObjAddr: 0x22F4, symBinAddr: 0x100009D50, symSize: 0x54 }
  - { offsetInCU: 0x7798, offset: 0x11CE5, size: 0x8, addend: 0x0, symName: __ZNSt3__120__throw_length_errorB8ue170006EPKc, symObjAddr: 0x23D4, symBinAddr: 0x100009E30, symSize: 0x64 }
  - { offsetInCU: 0x77C3, offset: 0x11D10, size: 0x8, addend: 0x0, symName: __ZNSt3__13maxB8ue170006ImNS_6__lessIvvEEEERKT_S5_S5_T0_, symObjAddr: 0x24B8, symBinAddr: 0x100009F14, symSize: 0x54 }
  - { offsetInCU: 0x781D, offset: 0x11D6A, size: 0x8, addend: 0x0, symName: __ZNSt3__119__allocate_at_leastB8ue170006INS_9allocatorIN3glm3vecILi3EfLNS2_9qualifierE0EEEEEEENS_19__allocation_resultINS_16allocator_traitsIT_E7pointerEEERS9_m, symObjAddr: 0x2628, symBinAddr: 0x10000A084, symSize: 0x40 }
  - { offsetInCU: 0x7860, offset: 0x11DAD, size: 0x8, addend: 0x0, symName: __ZNSt3__117__libcpp_allocateB8ue170006Emm, symObjAddr: 0x27B0, symBinAddr: 0x10000A20C, symSize: 0x28 }
  - { offsetInCU: 0x789D, offset: 0x11DEA, size: 0x8, addend: 0x0, symName: __ZNSt3__121__libcpp_operator_newB8ue170006IJmEEEPvDpT_, symObjAddr: 0x27D8, symBinAddr: 0x10000A234, symSize: 0x24 }
  - { offsetInCU: 0x78D6, offset: 0x11E23, size: 0x8, addend: 0x0, symName: __ZNSt3__142__uninitialized_allocator_move_if_noexceptB8ue170006INS_9allocatorIN3glm3vecILi3EfLNS2_9qualifierE0EEEEENS_16reverse_iteratorIPS5_EES9_S5_vEET1_RT_T0_SD_SA_, symObjAddr: 0x2860, symBinAddr: 0x10000A2BC, symSize: 0x78 }
  - { offsetInCU: 0x7953, offset: 0x11EA0, size: 0x8, addend: 0x0, symName: __ZNSt3__14swapB8ue170006IPN3glm3vecILi3EfLNS1_9qualifierE0EEEEENS_9enable_ifIXaasr21is_move_constructibleIT_EE5valuesr18is_move_assignableIS7_EE5valueEvE4typeERS7_SA_, symObjAddr: 0x2924, symBinAddr: 0x10000A380, symSize: 0x3C }
  - { offsetInCU: 0x79A4, offset: 0x11EF1, size: 0x8, addend: 0x0, symName: __ZNSt3__14moveB8ue170006INS_16reverse_iteratorIPN3glm3vecILi3EfLNS2_9qualifierE0EEEEES7_EET0_T_S9_S8_, symObjAddr: 0x2A28, symBinAddr: 0x10000A484, symSize: 0x78 }
  - { offsetInCU: 0x79FE, offset: 0x11F4B, size: 0x8, addend: 0x0, symName: __ZNSt3__16__moveB8ue170006INS_17_ClassicAlgPolicyENS_16reverse_iteratorIPN3glm3vecILi3EfLNS3_9qualifierE0EEEEES8_S8_EENS_4pairIT0_T2_EESA_T1_SB_, symObjAddr: 0x2AA0, symBinAddr: 0x10000A4FC, symSize: 0x64 }
  - { offsetInCU: 0x7A6A, offset: 0x11FB7, size: 0x8, addend: 0x0, symName: __ZNSt3__123__dispatch_copy_or_moveB8ue170006INS_17_ClassicAlgPolicyENS_11__move_loopIS1_EENS_14__move_trivialENS_16reverse_iteratorIPN3glm3vecILi3EfLNS6_9qualifierE0EEEEESB_SB_EENS_4pairIT2_T4_EESD_T3_SE_, symObjAddr: 0x2B04, symBinAddr: 0x10000A560, symSize: 0x64 }
  - { offsetInCU: 0x7AE8, offset: 0x12035, size: 0x8, addend: 0x0, symName: __ZNSt3__121__unwrap_and_dispatchB8ue170006INS_10__overloadINS_11__move_loopINS_17_ClassicAlgPolicyEEENS_14__move_trivialEEENS_16reverse_iteratorIPN3glm3vecILi3EfLNS8_9qualifierE0EEEEESD_SD_Li0EEENS_4pairIT0_T2_EESF_T1_SG_, symObjAddr: 0x2B68, symBinAddr: 0x10000A5C4, symSize: 0x12C }
  - { offsetInCU: 0x7B79, offset: 0x120C6, size: 0x8, addend: 0x0, symName: __ZNSt3__114__unwrap_rangeB8ue170006INS_16reverse_iteratorIPN3glm3vecILi3EfLNS2_9qualifierE0EEEEES7_EENS_4pairIT0_S9_EET_SB_, symObjAddr: 0x2C94, symBinAddr: 0x10000A6F0, symSize: 0x84 }
  - { offsetInCU: 0x7D72, offset: 0x122BF, size: 0x8, addend: 0x0, symName: __ZNSt3__113__unwrap_iterB8ue170006INS_16reverse_iteratorIPN3glm3vecILi3EfLNS2_9qualifierE0EEEEENS_18__unwrap_iter_implIS7_Lb0EEELi0EEEDTclsrT0_8__unwrapclsr3stdE7declvalIT_EEEESB_, symObjAddr: 0x2DC0, symBinAddr: 0x10000A81C, symSize: 0x44 }
  - { offsetInCU: 0x7DB7, offset: 0x12304, size: 0x8, addend: 0x0, symName: __ZNSt3__19make_pairB8ue170006INS_16reverse_iteratorIPN3glm3vecILi3EfLNS2_9qualifierE0EEEEES7_EENS_4pairINS_18__unwrap_ref_decayIT_E4typeENS9_IT0_E4typeEEEOSA_OSD_, symObjAddr: 0x2E04, symBinAddr: 0x10000A860, symSize: 0x38 }
  - { offsetInCU: 0x7E06, offset: 0x12353, size: 0x8, addend: 0x0, symName: __ZNSt3__114__rewrap_rangeB8ue170006INS_16reverse_iteratorIPN3glm3vecILi3EfLNS2_9qualifierE0EEEEES7_EET_S8_T0_, symObjAddr: 0x2E3C, symBinAddr: 0x10000A898, symSize: 0x5C }
  - { offsetInCU: 0x7E52, offset: 0x1239F, size: 0x8, addend: 0x0, symName: __ZNSt3__113__rewrap_iterB8ue170006INS_16reverse_iteratorIPN3glm3vecILi3EfLNS2_9qualifierE0EEEEES7_NS_18__unwrap_iter_implIS7_Lb0EEEEET_SA_T0_, symObjAddr: 0x2E98, symBinAddr: 0x10000A8F4, symSize: 0x74 }
  - { offsetInCU: 0x7EA7, offset: 0x123F4, size: 0x8, addend: 0x0, symName: __ZNSt3__1neB8ue170006IPN3glm3vecILi3EfLNS1_9qualifierE0EEES5_EEbRKNS_16reverse_iteratorIT_EERKNS6_IT0_EE, symObjAddr: 0x2F0C, symBinAddr: 0x10000A968, symSize: 0x48 }
  - { offsetInCU: 0x800B, offset: 0x12558, size: 0x8, addend: 0x0, symName: __ZNSt3__119__allocate_at_leastB8ue170006INS_9allocatorIN3glm3vecILi2EfLNS2_9qualifierE0EEEEEEENS_19__allocation_resultINS_16allocator_traitsIT_E7pointerEEERS9_m, symObjAddr: 0x39E4, symBinAddr: 0x10000B440, symSize: 0x40 }
  - { offsetInCU: 0x804E, offset: 0x1259B, size: 0x8, addend: 0x0, symName: __ZNSt3__142__uninitialized_allocator_move_if_noexceptB8ue170006INS_9allocatorIN3glm3vecILi2EfLNS2_9qualifierE0EEEEENS_16reverse_iteratorIPS5_EES9_S5_vEET1_RT_T0_SD_SA_, symObjAddr: 0x3B98, symBinAddr: 0x10000B5F4, symSize: 0x78 }
  - { offsetInCU: 0x80CB, offset: 0x12618, size: 0x8, addend: 0x0, symName: __ZNSt3__14swapB8ue170006IPN3glm3vecILi2EfLNS1_9qualifierE0EEEEENS_9enable_ifIXaasr21is_move_constructibleIT_EE5valuesr18is_move_assignableIS7_EE5valueEvE4typeERS7_SA_, symObjAddr: 0x3C5C, symBinAddr: 0x10000B6B8, symSize: 0x3C }
  - { offsetInCU: 0x811C, offset: 0x12669, size: 0x8, addend: 0x0, symName: __ZNSt3__14moveB8ue170006INS_16reverse_iteratorIPN3glm3vecILi2EfLNS2_9qualifierE0EEEEES7_EET0_T_S9_S8_, symObjAddr: 0x3D44, symBinAddr: 0x10000B7A0, symSize: 0x78 }
  - { offsetInCU: 0x8176, offset: 0x126C3, size: 0x8, addend: 0x0, symName: __ZNSt3__16__moveB8ue170006INS_17_ClassicAlgPolicyENS_16reverse_iteratorIPN3glm3vecILi2EfLNS3_9qualifierE0EEEEES8_S8_EENS_4pairIT0_T2_EESA_T1_SB_, symObjAddr: 0x3DBC, symBinAddr: 0x10000B818, symSize: 0x64 }
  - { offsetInCU: 0x81E2, offset: 0x1272F, size: 0x8, addend: 0x0, symName: __ZNSt3__123__dispatch_copy_or_moveB8ue170006INS_17_ClassicAlgPolicyENS_11__move_loopIS1_EENS_14__move_trivialENS_16reverse_iteratorIPN3glm3vecILi2EfLNS6_9qualifierE0EEEEESB_SB_EENS_4pairIT2_T4_EESD_T3_SE_, symObjAddr: 0x3E20, symBinAddr: 0x10000B87C, symSize: 0x64 }
  - { offsetInCU: 0x8260, offset: 0x127AD, size: 0x8, addend: 0x0, symName: __ZNSt3__121__unwrap_and_dispatchB8ue170006INS_10__overloadINS_11__move_loopINS_17_ClassicAlgPolicyEEENS_14__move_trivialEEENS_16reverse_iteratorIPN3glm3vecILi2EfLNS8_9qualifierE0EEEEESD_SD_Li0EEENS_4pairIT0_T2_EESF_T1_SG_, symObjAddr: 0x3E84, symBinAddr: 0x10000B8E0, symSize: 0x12C }
  - { offsetInCU: 0x82F1, offset: 0x1283E, size: 0x8, addend: 0x0, symName: __ZNSt3__114__unwrap_rangeB8ue170006INS_16reverse_iteratorIPN3glm3vecILi2EfLNS2_9qualifierE0EEEEES7_EENS_4pairIT0_S9_EET_SB_, symObjAddr: 0x3FB0, symBinAddr: 0x10000BA0C, symSize: 0x84 }
  - { offsetInCU: 0x8411, offset: 0x1295E, size: 0x8, addend: 0x0, symName: __ZNSt3__113__unwrap_iterB8ue170006INS_16reverse_iteratorIPN3glm3vecILi2EfLNS2_9qualifierE0EEEEENS_18__unwrap_iter_implIS7_Lb0EEELi0EEEDTclsrT0_8__unwrapclsr3stdE7declvalIT_EEEESB_, symObjAddr: 0x40D4, symBinAddr: 0x10000BB30, symSize: 0x44 }
  - { offsetInCU: 0x8456, offset: 0x129A3, size: 0x8, addend: 0x0, symName: __ZNSt3__19make_pairB8ue170006INS_16reverse_iteratorIPN3glm3vecILi2EfLNS2_9qualifierE0EEEEES7_EENS_4pairINS_18__unwrap_ref_decayIT_E4typeENS9_IT0_E4typeEEEOSA_OSD_, symObjAddr: 0x4118, symBinAddr: 0x10000BB74, symSize: 0x38 }
  - { offsetInCU: 0x84A5, offset: 0x129F2, size: 0x8, addend: 0x0, symName: __ZNSt3__114__rewrap_rangeB8ue170006INS_16reverse_iteratorIPN3glm3vecILi2EfLNS2_9qualifierE0EEEEES7_EET_S8_T0_, symObjAddr: 0x4150, symBinAddr: 0x10000BBAC, symSize: 0x5C }
  - { offsetInCU: 0x84F1, offset: 0x12A3E, size: 0x8, addend: 0x0, symName: __ZNSt3__113__rewrap_iterB8ue170006INS_16reverse_iteratorIPN3glm3vecILi2EfLNS2_9qualifierE0EEEEES7_NS_18__unwrap_iter_implIS7_Lb0EEEEET_SA_T0_, symObjAddr: 0x41AC, symBinAddr: 0x10000BC08, symSize: 0x74 }
  - { offsetInCU: 0x8546, offset: 0x12A93, size: 0x8, addend: 0x0, symName: __ZNSt3__1neB8ue170006IPN3glm3vecILi2EfLNS1_9qualifierE0EEES5_EEbRKNS_16reverse_iteratorIT_EERKNS6_IT0_EE, symObjAddr: 0x4220, symBinAddr: 0x10000BC7C, symSize: 0x48 }
  - { offsetInCU: 0x85FE, offset: 0x12B4B, size: 0x8, addend: 0x0, symName: __ZNSt3__119__allocate_at_leastB8ue170006INS_9allocatorIjEEEENS_19__allocation_resultINS_16allocator_traitsIT_E7pointerEEERS5_m, symObjAddr: 0x4EB0, symBinAddr: 0x10000C90C, symSize: 0x40 }
  - { offsetInCU: 0x8641, offset: 0x12B8E, size: 0x8, addend: 0x0, symName: __ZNSt3__142__uninitialized_allocator_move_if_noexceptB8ue170006INS_9allocatorIjEENS_16reverse_iteratorIPjEES5_jvEET1_RT_T0_S9_S6_, symObjAddr: 0x5064, symBinAddr: 0x10000CAC0, symSize: 0x78 }
  - { offsetInCU: 0x86BE, offset: 0x12C0B, size: 0x8, addend: 0x0, symName: __ZNSt3__14swapB8ue170006IPjEENS_9enable_ifIXaasr21is_move_constructibleIT_EE5valuesr18is_move_assignableIS3_EE5valueEvE4typeERS3_S6_, symObjAddr: 0x5128, symBinAddr: 0x10000CB84, symSize: 0x3C }
  - { offsetInCU: 0x870F, offset: 0x12C5C, size: 0x8, addend: 0x0, symName: __ZNSt3__14moveB8ue170006INS_16reverse_iteratorIPjEES3_EET0_T_S5_S4_, symObjAddr: 0x5210, symBinAddr: 0x10000CC6C, symSize: 0x78 }
  - { offsetInCU: 0x8769, offset: 0x12CB6, size: 0x8, addend: 0x0, symName: __ZNSt3__16__moveB8ue170006INS_17_ClassicAlgPolicyENS_16reverse_iteratorIPjEES4_S4_EENS_4pairIT0_T2_EES6_T1_S7_, symObjAddr: 0x5288, symBinAddr: 0x10000CCE4, symSize: 0x64 }
  - { offsetInCU: 0x87D5, offset: 0x12D22, size: 0x8, addend: 0x0, symName: __ZNSt3__123__dispatch_copy_or_moveB8ue170006INS_17_ClassicAlgPolicyENS_11__move_loopIS1_EENS_14__move_trivialENS_16reverse_iteratorIPjEES7_S7_EENS_4pairIT2_T4_EES9_T3_SA_, symObjAddr: 0x52EC, symBinAddr: 0x10000CD48, symSize: 0x64 }
  - { offsetInCU: 0x8853, offset: 0x12DA0, size: 0x8, addend: 0x0, symName: __ZNSt3__121__unwrap_and_dispatchB8ue170006INS_10__overloadINS_11__move_loopINS_17_ClassicAlgPolicyEEENS_14__move_trivialEEENS_16reverse_iteratorIPjEES9_S9_Li0EEENS_4pairIT0_T2_EESB_T1_SC_, symObjAddr: 0x5350, symBinAddr: 0x10000CDAC, symSize: 0x12C }
  - { offsetInCU: 0x88E4, offset: 0x12E31, size: 0x8, addend: 0x0, symName: __ZNSt3__114__unwrap_rangeB8ue170006INS_16reverse_iteratorIPjEES3_EENS_4pairIT0_S5_EET_S7_, symObjAddr: 0x547C, symBinAddr: 0x10000CED8, symSize: 0x84 }
  - { offsetInCU: 0x8A04, offset: 0x12F51, size: 0x8, addend: 0x0, symName: __ZNSt3__113__unwrap_iterB8ue170006INS_16reverse_iteratorIPjEENS_18__unwrap_iter_implIS3_Lb0EEELi0EEEDTclsrT0_8__unwrapclsr3stdE7declvalIT_EEEES7_, symObjAddr: 0x55A0, symBinAddr: 0x10000CFFC, symSize: 0x44 }
  - { offsetInCU: 0x8A49, offset: 0x12F96, size: 0x8, addend: 0x0, symName: __ZNSt3__19make_pairB8ue170006INS_16reverse_iteratorIPjEES3_EENS_4pairINS_18__unwrap_ref_decayIT_E4typeENS5_IT0_E4typeEEEOS6_OS9_, symObjAddr: 0x55E4, symBinAddr: 0x10000D040, symSize: 0x38 }
  - { offsetInCU: 0x8A98, offset: 0x12FE5, size: 0x8, addend: 0x0, symName: __ZNSt3__114__rewrap_rangeB8ue170006INS_16reverse_iteratorIPjEES3_EET_S4_T0_, symObjAddr: 0x561C, symBinAddr: 0x10000D078, symSize: 0x5C }
  - { offsetInCU: 0x8AE4, offset: 0x13031, size: 0x8, addend: 0x0, symName: __ZNSt3__113__rewrap_iterB8ue170006INS_16reverse_iteratorIPjEES3_NS_18__unwrap_iter_implIS3_Lb0EEEEET_S6_T0_, symObjAddr: 0x5678, symBinAddr: 0x10000D0D4, symSize: 0x74 }
  - { offsetInCU: 0x8B39, offset: 0x13086, size: 0x8, addend: 0x0, symName: __ZNSt3__1neB8ue170006IPjS1_EEbRKNS_16reverse_iteratorIT_EERKNS2_IT0_EE, symObjAddr: 0x56EC, symBinAddr: 0x10000D148, symSize: 0x48 }
  - { offsetInCU: 0x8F07, offset: 0x13454, size: 0x8, addend: 0x0, symName: __ZSt28__throw_bad_array_new_lengthB8ue170006v, symObjAddr: 0x277C, symBinAddr: 0x10000A1D8, symSize: 0x34 }
  - { offsetInCU: 0x94EC, offset: 0x13A39, size: 0x8, addend: 0x0, symName: __ZNSt3__16vectorIN3glm3vecILi3EfLNS1_9qualifierE0EEENS_9allocatorIS4_EEE26__swap_out_circular_bufferERNS_14__split_bufferIS4_RS6_EE, symObjAddr: 0x2084, symBinAddr: 0x100009AE0, symSize: 0x110 }
  - { offsetInCU: 0x9549, offset: 0x13A96, size: 0x8, addend: 0x0, symName: __ZNSt3__16vectorIN3glm3vecILi2EfLNS1_9qualifierE0EEENS_9allocatorIS4_EEE26__swap_out_circular_bufferERNS_14__split_bufferIS4_RS6_EE, symObjAddr: 0x3684, symBinAddr: 0x10000B0E0, symSize: 0x110 }
  - { offsetInCU: 0x959F, offset: 0x13AEC, size: 0x8, addend: 0x0, symName: __ZNSt3__16vectorIjNS_9allocatorIjEEE26__swap_out_circular_bufferERNS_14__split_bufferIjRS2_EE, symObjAddr: 0x4B50, symBinAddr: 0x10000C5AC, symSize: 0x110 }
  - { offsetInCU: 0xB392, offset: 0x158DF, size: 0x8, addend: 0x0, symName: __Z7loadOBJPKcRNSt3__16vectorIN3glm3vecILi3EfLNS3_9qualifierE0EEENS1_9allocatorIS6_EEEERNS2_INS4_ILi2EfLS5_0EEENS7_ISB_EEEESA_, symObjAddr: 0x0, symBinAddr: 0x10000883C, symSize: 0x6A4 }
  - { offsetInCU: 0xB5F0, offset: 0x15B3D, size: 0x8, addend: 0x0, symName: __ZNSt3__16vectorIjNS_9allocatorIjEEEC1B8ue170006Ev, symObjAddr: 0x6A4, symBinAddr: 0x100008EE0, symSize: 0x2C }
  - { offsetInCU: 0xB618, offset: 0x15B65, size: 0x8, addend: 0x0, symName: __ZNSt3__16vectorIN3glm3vecILi3EfLNS1_9qualifierE0EEENS_9allocatorIS4_EEE9push_backB8ue170006ERKS4_, symObjAddr: 0x728, symBinAddr: 0x100008F0C, symSize: 0x6C }
  - { offsetInCU: 0xB64E, offset: 0x15B9B, size: 0x8, addend: 0x0, symName: __ZNSt3__16vectorIN3glm3vecILi2EfLNS1_9qualifierE0EEENS_9allocatorIS4_EEE9push_backB8ue170006ERKS4_, symObjAddr: 0x794, symBinAddr: 0x100008F78, symSize: 0x6C }
  - { offsetInCU: 0xB684, offset: 0x15BD1, size: 0x8, addend: 0x0, symName: __ZNSt3__112basic_stringIcNS_11char_traitsIcEENS_9allocatorIcEEEC1B8ue170006Ev, symObjAddr: 0x800, symBinAddr: 0x100008FE4, symSize: 0x2C }
  - { offsetInCU: 0xB6AC, offset: 0x15BF9, size: 0x8, addend: 0x0, symName: __ZNSt3__16vectorIjNS_9allocatorIjEEE9push_backB8ue170006ERKj, symObjAddr: 0x82C, symBinAddr: 0x100009010, symSize: 0x6C }
  - { offsetInCU: 0xB6E2, offset: 0x15C2F, size: 0x8, addend: 0x0, symName: __ZNKSt3__16vectorIjNS_9allocatorIjEEE4sizeB8ue170006Ev, symObjAddr: 0x898, symBinAddr: 0x10000907C, symSize: 0x28 }
  - { offsetInCU: 0xB706, offset: 0x15C53, size: 0x8, addend: 0x0, symName: __ZNSt3__16vectorIjNS_9allocatorIjEEEixB8ue170006Em, symObjAddr: 0x8C0, symBinAddr: 0x1000090A4, symSize: 0x24 }
  - { offsetInCU: 0xB73B, offset: 0x15C88, size: 0x8, addend: 0x0, symName: __ZNSt3__16vectorIjNS_9allocatorIjEEED1B8ue170006Ev, symObjAddr: 0x98C, symBinAddr: 0x1000090C8, symSize: 0x2C }
  - { offsetInCU: 0xB763, offset: 0x15CB0, size: 0x8, addend: 0x0, symName: __ZNSt3__16vectorIjNS_9allocatorIjEEEC2B8ue170006Ev, symObjAddr: 0x9B8, symBinAddr: 0x1000090F4, symSize: 0x4C }
  - { offsetInCU: 0xB795, offset: 0x15CE2, size: 0x8, addend: 0x0, symName: __ZNSt3__117__compressed_pairIPjNS_9allocatorIjEEEC1B8ue170006IDnNS_18__default_init_tagEEEOT_OT0_, symObjAddr: 0xA04, symBinAddr: 0x100009140, symSize: 0x3C }
  - { offsetInCU: 0xB7EB, offset: 0x15D38, size: 0x8, addend: 0x0, symName: __ZNSt3__117__compressed_pairIPjNS_9allocatorIjEEEC2B8ue170006IDnNS_18__default_init_tagEEEOT_OT0_, symObjAddr: 0xA4C, symBinAddr: 0x10000917C, symSize: 0x40 }
  - { offsetInCU: 0xB841, offset: 0x15D8E, size: 0x8, addend: 0x0, symName: __ZNSt3__122__compressed_pair_elemIPjLi0ELb0EEC2B8ue170006IDnvEEOT_, symObjAddr: 0xA8C, symBinAddr: 0x1000091BC, symSize: 0x1C }
  - { offsetInCU: 0xB881, offset: 0x15DCE, size: 0x8, addend: 0x0, symName: __ZNSt3__122__compressed_pair_elemINS_9allocatorIjEELi1ELb1EEC2B8ue170006ENS_18__default_init_tagE, symObjAddr: 0xAA8, symBinAddr: 0x1000091D8, symSize: 0x2C }
  - { offsetInCU: 0xB8B3, offset: 0x15E00, size: 0x8, addend: 0x0, symName: __ZNSt3__19allocatorIjEC2B8ue170006Ev, symObjAddr: 0xAD4, symBinAddr: 0x100009204, symSize: 0x2C }
  - { offsetInCU: 0xB8DB, offset: 0x15E28, size: 0x8, addend: 0x0, symName: __ZNSt3__116__non_trivial_ifILb1ENS_9allocatorIjEEEC2B8ue170006Ev, symObjAddr: 0xB00, symBinAddr: 0x100009230, symSize: 0x14 }
  - { offsetInCU: 0xB903, offset: 0x15E50, size: 0x8, addend: 0x0, symName: __ZNSt3__16vectorIjNS_9allocatorIjEEED2B8ue170006Ev, symObjAddr: 0xB14, symBinAddr: 0x100009244, symSize: 0x44 }
  - { offsetInCU: 0xB92B, offset: 0x15E78, size: 0x8, addend: 0x0, symName: __ZNSt3__16vectorIjNS_9allocatorIjEEE16__destroy_vectorC1B8ue170006ERS3_, symObjAddr: 0xB58, symBinAddr: 0x100009288, symSize: 0x34 }
  - { offsetInCU: 0xB962, offset: 0x15EAF, size: 0x8, addend: 0x0, symName: __ZNSt3__16vectorIjNS_9allocatorIjEEE16__destroy_vectorclB8ue170006Ev, symObjAddr: 0xB8C, symBinAddr: 0x1000092BC, symSize: 0x90 }
  - { offsetInCU: 0xB986, offset: 0x15ED3, size: 0x8, addend: 0x0, symName: __ZNSt3__16vectorIjNS_9allocatorIjEEE16__destroy_vectorC2B8ue170006ERS3_, symObjAddr: 0xC1C, symBinAddr: 0x10000934C, symSize: 0x20 }
  - { offsetInCU: 0xB9BD, offset: 0x15F0A, size: 0x8, addend: 0x0, symName: __ZNSt3__16vectorIjNS_9allocatorIjEEE7__clearB8ue170006Ev, symObjAddr: 0xC3C, symBinAddr: 0x10000936C, symSize: 0x28 }
  - { offsetInCU: 0xB9E1, offset: 0x15F2E, size: 0x8, addend: 0x0, symName: __ZNKSt3__16vectorIjNS_9allocatorIjEEE17__annotate_deleteB8ue170006Ev, symObjAddr: 0xC64, symBinAddr: 0x100009394, symSize: 0xB8 }
  - { offsetInCU: 0xBA05, offset: 0x15F52, size: 0x8, addend: 0x0, symName: __ZNSt3__116allocator_traitsINS_9allocatorIjEEE10deallocateB8ue170006ERS2_Pjm, symObjAddr: 0xD1C, symBinAddr: 0x10000944C, symSize: 0x34 }
  - { offsetInCU: 0xBA46, offset: 0x15F93, size: 0x8, addend: 0x0, symName: __ZNSt3__16vectorIjNS_9allocatorIjEEE7__allocB8ue170006Ev, symObjAddr: 0xD50, symBinAddr: 0x100009480, symSize: 0x28 }
  - { offsetInCU: 0xBA6A, offset: 0x15FB7, size: 0x8, addend: 0x0, symName: __ZNKSt3__16vectorIjNS_9allocatorIjEEE8capacityB8ue170006Ev, symObjAddr: 0xD78, symBinAddr: 0x1000094A8, symSize: 0x40 }
  - { offsetInCU: 0xBA8E, offset: 0x15FDB, size: 0x8, addend: 0x0, symName: __ZNSt3__16vectorIjNS_9allocatorIjEEE22__base_destruct_at_endB8ue170006EPj, symObjAddr: 0xDB8, symBinAddr: 0x1000094E8, symSize: 0x8C }
  - { offsetInCU: 0xBAD0, offset: 0x1601D, size: 0x8, addend: 0x0, symName: __ZNSt3__116allocator_traitsINS_9allocatorIjEEE7destroyB8ue170006IjvEEvRS2_PT_, symObjAddr: 0xE44, symBinAddr: 0x100009574, symSize: 0x2C }
  - { offsetInCU: 0xBB0C, offset: 0x16059, size: 0x8, addend: 0x0, symName: __ZNSt3__19allocatorIjE7destroyB8ue170006EPj, symObjAddr: 0xE84, symBinAddr: 0x1000095B4, symSize: 0x14 }
  - { offsetInCU: 0xBB3E, offset: 0x1608B, size: 0x8, addend: 0x0, symName: __ZNKSt3__16vectorIjNS_9allocatorIjEEE31__annotate_contiguous_containerB8ue170006EPKvS5_S5_S5_, symObjAddr: 0xE98, symBinAddr: 0x1000095C8, symSize: 0x20 }
  - { offsetInCU: 0xBB8E, offset: 0x160DB, size: 0x8, addend: 0x0, symName: __ZNKSt3__16vectorIjNS_9allocatorIjEEE4dataB8ue170006Ev, symObjAddr: 0xEB8, symBinAddr: 0x1000095E8, symSize: 0x28 }
  - { offsetInCU: 0xBBB2, offset: 0x160FF, size: 0x8, addend: 0x0, symName: __ZNSt3__19allocatorIjE10deallocateB8ue170006EPjm, symObjAddr: 0xEE0, symBinAddr: 0x100009610, symSize: 0x40 }
  - { offsetInCU: 0xBBF2, offset: 0x1613F, size: 0x8, addend: 0x0, symName: __ZNSt3__117__compressed_pairIPjNS_9allocatorIjEEE6secondB8ue170006Ev, symObjAddr: 0xF9C, symBinAddr: 0x100009650, symSize: 0x24 }
  - { offsetInCU: 0xBC16, offset: 0x16163, size: 0x8, addend: 0x0, symName: __ZNSt3__122__compressed_pair_elemINS_9allocatorIjEELi1ELb1EE5__getB8ue170006Ev, symObjAddr: 0xFC0, symBinAddr: 0x100009674, symSize: 0x14 }
  - { offsetInCU: 0xBC3A, offset: 0x16187, size: 0x8, addend: 0x0, symName: __ZNKSt3__16vectorIjNS_9allocatorIjEEE9__end_capB8ue170006Ev, symObjAddr: 0xFD4, symBinAddr: 0x100009688, symSize: 0x28 }
  - { offsetInCU: 0xBC5E, offset: 0x161AB, size: 0x8, addend: 0x0, symName: __ZNKSt3__117__compressed_pairIPjNS_9allocatorIjEEE5firstB8ue170006Ev, symObjAddr: 0xFFC, symBinAddr: 0x1000096B0, symSize: 0x24 }
  - { offsetInCU: 0xBC82, offset: 0x161CF, size: 0x8, addend: 0x0, symName: __ZNKSt3__122__compressed_pair_elemIPjLi0ELb0EE5__getB8ue170006Ev, symObjAddr: 0x1020, symBinAddr: 0x1000096D4, symSize: 0x14 }
  - { offsetInCU: 0xBCA6, offset: 0x161F3, size: 0x8, addend: 0x0, symName: __ZNSt3__16vectorIN3glm3vecILi3EfLNS1_9qualifierE0EEENS_9allocatorIS4_EEE9__end_capB8ue170006Ev, symObjAddr: 0x1C8C, symBinAddr: 0x1000096E8, symSize: 0x28 }
  - { offsetInCU: 0xBCCA, offset: 0x16217, size: 0x8, addend: 0x0, symName: __ZNSt3__16vectorIN3glm3vecILi3EfLNS1_9qualifierE0EEENS_9allocatorIS4_EEE22__construct_one_at_endB8ue170006IJRKS4_EEEvDpOT_, symObjAddr: 0x1CB4, symBinAddr: 0x100009710, symSize: 0x90 }
  - { offsetInCU: 0xBD17, offset: 0x16264, size: 0x8, addend: 0x0, symName: __ZNSt3__16vectorIN3glm3vecILi3EfLNS1_9qualifierE0EEENS_9allocatorIS4_EEE21__push_back_slow_pathIRKS4_EEvOT_, symObjAddr: 0x1D44, symBinAddr: 0x1000097A0, symSize: 0xD8 }
  - { offsetInCU: 0xBD74, offset: 0x162C1, size: 0x8, addend: 0x0, symName: __ZNSt3__117__compressed_pairIPN3glm3vecILi3EfLNS1_9qualifierE0EEENS_9allocatorIS4_EEE5firstB8ue170006Ev, symObjAddr: 0x1E1C, symBinAddr: 0x100009878, symSize: 0x24 }
  - { offsetInCU: 0xBD98, offset: 0x162E5, size: 0x8, addend: 0x0, symName: __ZNSt3__122__compressed_pair_elemIPN3glm3vecILi3EfLNS1_9qualifierE0EEELi0ELb0EE5__getB8ue170006Ev, symObjAddr: 0x1E40, symBinAddr: 0x10000989C, symSize: 0x14 }
  - { offsetInCU: 0xBDD5, offset: 0x16322, size: 0x8, addend: 0x0, symName: __ZNSt3__16vectorIN3glm3vecILi3EfLNS1_9qualifierE0EEENS_9allocatorIS4_EEE21_ConstructTransactionC1B8ue170006ERS7_m, symObjAddr: 0x1E54, symBinAddr: 0x1000098B0, symSize: 0x3C }
  - { offsetInCU: 0xBE1B, offset: 0x16368, size: 0x8, addend: 0x0, symName: __ZNSt3__116allocator_traitsINS_9allocatorIN3glm3vecILi3EfLNS2_9qualifierE0EEEEEE9constructB8ue170006IS5_JRKS5_EvEEvRS6_PT_DpOT0_, symObjAddr: 0x1E90, symBinAddr: 0x1000098EC, symSize: 0x34 }
  - { offsetInCU: 0xBE71, offset: 0x163BE, size: 0x8, addend: 0x0, symName: __ZNSt3__16vectorIN3glm3vecILi3EfLNS1_9qualifierE0EEENS_9allocatorIS4_EEE21_ConstructTransactionD1B8ue170006Ev, symObjAddr: 0x1EC4, symBinAddr: 0x100009920, symSize: 0x2C }
  - { offsetInCU: 0xBE99, offset: 0x163E6, size: 0x8, addend: 0x0, symName: __ZNSt3__16vectorIN3glm3vecILi3EfLNS1_9qualifierE0EEENS_9allocatorIS4_EEE21_ConstructTransactionC2B8ue170006ERS7_m, symObjAddr: 0x1EF0, symBinAddr: 0x10000994C, symSize: 0x4C }
  - { offsetInCU: 0xBEDF, offset: 0x1642C, size: 0x8, addend: 0x0, symName: __ZNSt3__19allocatorIN3glm3vecILi3EfLNS1_9qualifierE0EEEE9constructB8ue170006IS4_JRKS4_EEEvPT_DpOT0_, symObjAddr: 0x1F3C, symBinAddr: 0x100009998, symSize: 0x30 }
  - { offsetInCU: 0xBF33, offset: 0x16480, size: 0x8, addend: 0x0, symName: __ZNSt3__16vectorIN3glm3vecILi3EfLNS1_9qualifierE0EEENS_9allocatorIS4_EEE21_ConstructTransactionD2B8ue170006Ev, symObjAddr: 0x1F6C, symBinAddr: 0x1000099C8, symSize: 0x20 }
  - { offsetInCU: 0xBF5B, offset: 0x164A8, size: 0x8, addend: 0x0, symName: __ZNKSt3__16vectorIN3glm3vecILi3EfLNS1_9qualifierE0EEENS_9allocatorIS4_EEE11__recommendB8ue170006Em, symObjAddr: 0x1F8C, symBinAddr: 0x1000099E8, symSize: 0xB4 }
  - { offsetInCU: 0xBFAF, offset: 0x164FC, size: 0x8, addend: 0x0, symName: __ZNSt3__114__split_bufferIN3glm3vecILi3EfLNS1_9qualifierE0EEERNS_9allocatorIS4_EEEC1EmmS7_, symObjAddr: 0x2040, symBinAddr: 0x100009A9C, symSize: 0x44 }
  - { offsetInCU: 0xC004, offset: 0x16551, size: 0x8, addend: 0x0, symName: __ZNSt3__114__split_bufferIN3glm3vecILi3EfLNS1_9qualifierE0EEERNS_9allocatorIS4_EEED1Ev, symObjAddr: 0x2194, symBinAddr: 0x100009BF0, symSize: 0x2C }
  - { offsetInCU: 0xC02F, offset: 0x1657C, size: 0x8, addend: 0x0, symName: __ZNKSt3__16vectorIN3glm3vecILi3EfLNS1_9qualifierE0EEENS_9allocatorIS4_EEE8max_sizeEv, symObjAddr: 0x21C0, symBinAddr: 0x100009C1C, symSize: 0x60 }
  - { offsetInCU: 0xC056, offset: 0x165A3, size: 0x8, addend: 0x0, symName: __ZNKSt3__16vectorIN3glm3vecILi3EfLNS1_9qualifierE0EEENS_9allocatorIS4_EEE20__throw_length_errorB8ue170006Ev, symObjAddr: 0x2220, symBinAddr: 0x100009C7C, symSize: 0x1C }
  - { offsetInCU: 0xC084, offset: 0x165D1, size: 0x8, addend: 0x0, symName: __ZNSt3__116allocator_traitsINS_9allocatorIN3glm3vecILi3EfLNS2_9qualifierE0EEEEEE8max_sizeB8ue170006IS6_vEEmRKS6_, symObjAddr: 0x2294, symBinAddr: 0x100009CF0, symSize: 0x24 }
  - { offsetInCU: 0xC0B1, offset: 0x165FE, size: 0x8, addend: 0x0, symName: __ZNKSt3__16vectorIN3glm3vecILi3EfLNS1_9qualifierE0EEENS_9allocatorIS4_EEE7__allocB8ue170006Ev, symObjAddr: 0x22B8, symBinAddr: 0x100009D14, symSize: 0x28 }
  - { offsetInCU: 0xC0D5, offset: 0x16622, size: 0x8, addend: 0x0, symName: __ZNSt3__114numeric_limitsIlE3maxB8ue170006Ev, symObjAddr: 0x22E0, symBinAddr: 0x100009D3C, symSize: 0x14 }
  - { offsetInCU: 0xC0FC, offset: 0x16649, size: 0x8, addend: 0x0, symName: __ZNKSt3__16__lessIvvEclB8ue170006ImmEEbRKT_RKT0_, symObjAddr: 0x2348, symBinAddr: 0x100009DA4, symSize: 0x34 }
  - { offsetInCU: 0xC14E, offset: 0x1669B, size: 0x8, addend: 0x0, symName: __ZNKSt3__19allocatorIN3glm3vecILi3EfLNS1_9qualifierE0EEEE8max_sizeB8ue170006Ev, symObjAddr: 0x237C, symBinAddr: 0x100009DD8, symSize: 0x18 }
  - { offsetInCU: 0xC172, offset: 0x166BF, size: 0x8, addend: 0x0, symName: __ZNKSt3__117__compressed_pairIPN3glm3vecILi3EfLNS1_9qualifierE0EEENS_9allocatorIS4_EEE6secondB8ue170006Ev, symObjAddr: 0x2394, symBinAddr: 0x100009DF0, symSize: 0x24 }
  - { offsetInCU: 0xC196, offset: 0x166E3, size: 0x8, addend: 0x0, symName: __ZNKSt3__122__compressed_pair_elemINS_9allocatorIN3glm3vecILi3EfLNS2_9qualifierE0EEEEELi1ELb1EE5__getB8ue170006Ev, symObjAddr: 0x23B8, symBinAddr: 0x100009E14, symSize: 0x14 }
  - { offsetInCU: 0xC1BB, offset: 0x16708, size: 0x8, addend: 0x0, symName: __ZNSt3__123__libcpp_numeric_limitsIlLb1EE3maxB8ue170006Ev, symObjAddr: 0x23CC, symBinAddr: 0x100009E28, symSize: 0x8 }
  - { offsetInCU: 0xC1CD, offset: 0x1671A, size: 0x8, addend: 0x0, symName: __ZNSt12length_errorC1B8ue170006EPKc, symObjAddr: 0x2438, symBinAddr: 0x100009E94, symSize: 0x34 }
  - { offsetInCU: 0xC203, offset: 0x16750, size: 0x8, addend: 0x0, symName: __ZNSt12length_errorC2B8ue170006EPKc, symObjAddr: 0x246C, symBinAddr: 0x100009EC8, symSize: 0x4C }
  - { offsetInCU: 0xC239, offset: 0x16786, size: 0x8, addend: 0x0, symName: __ZNSt3__114__split_bufferIN3glm3vecILi3EfLNS1_9qualifierE0EEERNS_9allocatorIS4_EEEC2EmmS7_, symObjAddr: 0x250C, symBinAddr: 0x100009F68, symSize: 0xE0 }
  - { offsetInCU: 0xC2AC, offset: 0x167F9, size: 0x8, addend: 0x0, symName: __ZNSt3__117__compressed_pairIPN3glm3vecILi3EfLNS1_9qualifierE0EEERNS_9allocatorIS4_EEEC1B8ue170006IDnS8_EEOT_OT0_, symObjAddr: 0x25EC, symBinAddr: 0x10000A048, symSize: 0x3C }
  - { offsetInCU: 0xC302, offset: 0x1684F, size: 0x8, addend: 0x0, symName: __ZNSt3__114__split_bufferIN3glm3vecILi3EfLNS1_9qualifierE0EEERNS_9allocatorIS4_EEE7__allocB8ue170006Ev, symObjAddr: 0x2668, symBinAddr: 0x10000A0C4, symSize: 0x28 }
  - { offsetInCU: 0xC326, offset: 0x16873, size: 0x8, addend: 0x0, symName: __ZNSt3__114__split_bufferIN3glm3vecILi3EfLNS1_9qualifierE0EEERNS_9allocatorIS4_EEE9__end_capB8ue170006Ev, symObjAddr: 0x2690, symBinAddr: 0x10000A0EC, symSize: 0x28 }
  - { offsetInCU: 0xC34A, offset: 0x16897, size: 0x8, addend: 0x0, symName: __ZNSt3__117__compressed_pairIPN3glm3vecILi3EfLNS1_9qualifierE0EEERNS_9allocatorIS4_EEEC2B8ue170006IDnS8_EEOT_OT0_, symObjAddr: 0x26B8, symBinAddr: 0x10000A114, symSize: 0x48 }
  - { offsetInCU: 0xC3A0, offset: 0x168ED, size: 0x8, addend: 0x0, symName: __ZNSt3__122__compressed_pair_elemIRNS_9allocatorIN3glm3vecILi3EfLNS2_9qualifierE0EEEEELi1ELb0EEC2B8ue170006IS7_vEEOT_, symObjAddr: 0x2700, symBinAddr: 0x10000A15C, symSize: 0x20 }
  - { offsetInCU: 0xC3E0, offset: 0x1692D, size: 0x8, addend: 0x0, symName: __ZNSt3__19allocatorIN3glm3vecILi3EfLNS1_9qualifierE0EEEE8allocateB8ue170006Em, symObjAddr: 0x2720, symBinAddr: 0x10000A17C, symSize: 0x5C }
  - { offsetInCU: 0xC412, offset: 0x1695F, size: 0x8, addend: 0x0, symName: __ZNSt3__117__compressed_pairIPN3glm3vecILi3EfLNS1_9qualifierE0EEERNS_9allocatorIS4_EEE6secondB8ue170006Ev, symObjAddr: 0x27FC, symBinAddr: 0x10000A258, symSize: 0x28 }
  - { offsetInCU: 0xC436, offset: 0x16983, size: 0x8, addend: 0x0, symName: __ZNSt3__122__compressed_pair_elemIRNS_9allocatorIN3glm3vecILi3EfLNS2_9qualifierE0EEEEELi1ELb0EE5__getB8ue170006Ev, symObjAddr: 0x2824, symBinAddr: 0x10000A280, symSize: 0x18 }
  - { offsetInCU: 0xC45A, offset: 0x169A7, size: 0x8, addend: 0x0, symName: __ZNSt3__117__compressed_pairIPN3glm3vecILi3EfLNS1_9qualifierE0EEERNS_9allocatorIS4_EEE5firstB8ue170006Ev, symObjAddr: 0x283C, symBinAddr: 0x10000A298, symSize: 0x24 }
  - { offsetInCU: 0xC47E, offset: 0x169CB, size: 0x8, addend: 0x0, symName: __ZNSt3__116reverse_iteratorIPN3glm3vecILi3EfLNS1_9qualifierE0EEEEC1B8ue170006ES5_, symObjAddr: 0x28D8, symBinAddr: 0x10000A334, symSize: 0x34 }
  - { offsetInCU: 0xC4B4, offset: 0x16A01, size: 0x8, addend: 0x0, symName: __ZNKSt3__116reverse_iteratorIPN3glm3vecILi3EfLNS1_9qualifierE0EEEE4baseB8ue170006Ev, symObjAddr: 0x290C, symBinAddr: 0x10000A368, symSize: 0x18 }
  - { offsetInCU: 0xC4D8, offset: 0x16A25, size: 0x8, addend: 0x0, symName: __ZNKSt3__16vectorIN3glm3vecILi3EfLNS1_9qualifierE0EEENS_9allocatorIS4_EEE14__annotate_newB8ue170006Em, symObjAddr: 0x2960, symBinAddr: 0x10000A3BC, symSize: 0xC8 }
  - { offsetInCU: 0xC52E, offset: 0x16A7B, size: 0x8, addend: 0x0, symName: __ZNKSt3__111__move_loopINS_17_ClassicAlgPolicyEEclB8ue170006INS_16reverse_iteratorIPN3glm3vecILi3EfLNS5_9qualifierE0EEEEESA_SA_EENS_4pairIT_T1_EESC_T0_SD_, symObjAddr: 0x2D18, symBinAddr: 0x10000A774, symSize: 0xA8 }
  - { offsetInCU: 0xC59C, offset: 0x16AE9, size: 0x8, addend: 0x0, symName: __ZNSt3__18_IterOpsINS_17_ClassicAlgPolicyEE11__iter_moveB8ue170006IRNS_16reverse_iteratorIPN3glm3vecILi3EfLNS5_9qualifierE0EEEEEEENS_9enable_ifIXsr12is_referenceIDTdeclsr3stdE7declvalIRT_EEEEE5valueEDTclsr3stdE4movedeclsr3stdE7declvalISE_EEEEE4typeEOSD_, symObjAddr: 0x2F54, symBinAddr: 0x10000A9B0, symSize: 0x28 }
  - { offsetInCU: 0xC5C7, offset: 0x16B14, size: 0x8, addend: 0x0, symName: __ZNKSt3__116reverse_iteratorIPN3glm3vecILi3EfLNS1_9qualifierE0EEEEdeB8ue170006Ev, symObjAddr: 0x2F7C, symBinAddr: 0x10000A9D8, symSize: 0x28 }
  - { offsetInCU: 0xC5F9, offset: 0x16B46, size: 0x8, addend: 0x0, symName: __ZNSt3__116reverse_iteratorIPN3glm3vecILi3EfLNS1_9qualifierE0EEEEppB8ue170006Ev, symObjAddr: 0x2FA4, symBinAddr: 0x10000AA00, symSize: 0x20 }
  - { offsetInCU: 0xC61E, offset: 0x16B6B, size: 0x8, addend: 0x0, symName: __ZNSt3__18_IterOpsINS_17_ClassicAlgPolicyEE25__validate_iter_referenceB8ue170006IRNS_16reverse_iteratorIPN3glm3vecILi3EfLNS5_9qualifierE0EEEEEEEvv, symObjAddr: 0x2FC4, symBinAddr: 0x10000AA20, symSize: 0x4 }
  - { offsetInCU: 0xC63B, offset: 0x16B88, size: 0x8, addend: 0x0, symName: __ZNSt3__118__unwrap_iter_implINS_16reverse_iteratorIPN3glm3vecILi3EfLNS2_9qualifierE0EEEEELb0EE8__unwrapB8ue170006ES7_, symObjAddr: 0x2FC8, symBinAddr: 0x10000AA24, symSize: 0x24 }
  - { offsetInCU: 0xC661, offset: 0x16BAE, size: 0x8, addend: 0x0, symName: __ZNSt3__14pairINS_16reverse_iteratorIPN3glm3vecILi3EfLNS2_9qualifierE0EEEEES7_EC1B8ue170006IS7_S7_LPv0EEEOT_OT0_, symObjAddr: 0x2FEC, symBinAddr: 0x10000AA48, symSize: 0x3C }
  - { offsetInCU: 0xC6BD, offset: 0x16C0A, size: 0x8, addend: 0x0, symName: __ZNSt3__14pairINS_16reverse_iteratorIPN3glm3vecILi3EfLNS2_9qualifierE0EEEEES7_EC2B8ue170006IS7_S7_LPv0EEEOT_OT0_, symObjAddr: 0x3028, symBinAddr: 0x10000AA84, symSize: 0x34 }
  - { offsetInCU: 0xC71A, offset: 0x16C67, size: 0x8, addend: 0x0, symName: __ZNSt3__118__unwrap_iter_implINS_16reverse_iteratorIPN3glm3vecILi3EfLNS2_9qualifierE0EEEEELb0EE8__rewrapB8ue170006ES7_S7_, symObjAddr: 0x305C, symBinAddr: 0x10000AAB8, symSize: 0x2C }
  - { offsetInCU: 0xC745, offset: 0x16C92, size: 0x8, addend: 0x0, symName: __ZNSt3__116reverse_iteratorIPN3glm3vecILi3EfLNS1_9qualifierE0EEEEC2B8ue170006ES5_, symObjAddr: 0x3088, symBinAddr: 0x10000AAE4, symSize: 0x28 }
  - { offsetInCU: 0xC77B, offset: 0x16CC8, size: 0x8, addend: 0x0, symName: __ZNSt3__114__split_bufferIN3glm3vecILi3EfLNS1_9qualifierE0EEERNS_9allocatorIS4_EEED2Ev, symObjAddr: 0x30B0, symBinAddr: 0x10000AB0C, symSize: 0x8C }
  - { offsetInCU: 0xC7A6, offset: 0x16CF3, size: 0x8, addend: 0x0, symName: __ZNSt3__114__split_bufferIN3glm3vecILi3EfLNS1_9qualifierE0EEERNS_9allocatorIS4_EEE5clearB8ue170006Ev, symObjAddr: 0x313C, symBinAddr: 0x10000AB98, symSize: 0x28 }
  - { offsetInCU: 0xC7CA, offset: 0x16D17, size: 0x8, addend: 0x0, symName: __ZNKSt3__114__split_bufferIN3glm3vecILi3EfLNS1_9qualifierE0EEERNS_9allocatorIS4_EEE8capacityB8ue170006Ev, symObjAddr: 0x3164, symBinAddr: 0x10000ABC0, symSize: 0x40 }
  - { offsetInCU: 0xC7EE, offset: 0x16D3B, size: 0x8, addend: 0x0, symName: __ZNSt3__114__split_bufferIN3glm3vecILi3EfLNS1_9qualifierE0EEERNS_9allocatorIS4_EEE17__destruct_at_endB8ue170006EPS4_, symObjAddr: 0x31A4, symBinAddr: 0x10000AC00, symSize: 0x2C }
  - { offsetInCU: 0xC820, offset: 0x16D6D, size: 0x8, addend: 0x0, symName: __ZNSt3__114__split_bufferIN3glm3vecILi3EfLNS1_9qualifierE0EEERNS_9allocatorIS4_EEE17__destruct_at_endB8ue170006EPS4_NS_17integral_constantIbLb0EEE, symObjAddr: 0x31D0, symBinAddr: 0x10000AC2C, symSize: 0x80 }
  - { offsetInCU: 0xC85F, offset: 0x16DAC, size: 0x8, addend: 0x0, symName: __ZNKSt3__114__split_bufferIN3glm3vecILi3EfLNS1_9qualifierE0EEERNS_9allocatorIS4_EEE9__end_capB8ue170006Ev, symObjAddr: 0x3250, symBinAddr: 0x10000ACAC, symSize: 0x28 }
  - { offsetInCU: 0xC883, offset: 0x16DD0, size: 0x8, addend: 0x0, symName: __ZNKSt3__117__compressed_pairIPN3glm3vecILi3EfLNS1_9qualifierE0EEERNS_9allocatorIS4_EEE5firstB8ue170006Ev, symObjAddr: 0x3278, symBinAddr: 0x10000ACD4, symSize: 0x24 }
  - { offsetInCU: 0xC8A7, offset: 0x16DF4, size: 0x8, addend: 0x0, symName: __ZNSt3__16vectorIN3glm3vecILi2EfLNS1_9qualifierE0EEENS_9allocatorIS4_EEE9__end_capB8ue170006Ev, symObjAddr: 0x329C, symBinAddr: 0x10000ACF8, symSize: 0x28 }
  - { offsetInCU: 0xC8CB, offset: 0x16E18, size: 0x8, addend: 0x0, symName: __ZNSt3__16vectorIN3glm3vecILi2EfLNS1_9qualifierE0EEENS_9allocatorIS4_EEE22__construct_one_at_endB8ue170006IJRKS4_EEEvDpOT_, symObjAddr: 0x32C4, symBinAddr: 0x10000AD20, symSize: 0x90 }
  - { offsetInCU: 0xC918, offset: 0x16E65, size: 0x8, addend: 0x0, symName: __ZNSt3__16vectorIN3glm3vecILi2EfLNS1_9qualifierE0EEENS_9allocatorIS4_EEE21__push_back_slow_pathIRKS4_EEvOT_, symObjAddr: 0x3354, symBinAddr: 0x10000ADB0, symSize: 0xD8 }
  - { offsetInCU: 0xC975, offset: 0x16EC2, size: 0x8, addend: 0x0, symName: __ZNSt3__117__compressed_pairIPN3glm3vecILi2EfLNS1_9qualifierE0EEENS_9allocatorIS4_EEE5firstB8ue170006Ev, symObjAddr: 0x342C, symBinAddr: 0x10000AE88, symSize: 0x24 }
  - { offsetInCU: 0xC999, offset: 0x16EE6, size: 0x8, addend: 0x0, symName: __ZNSt3__122__compressed_pair_elemIPN3glm3vecILi2EfLNS1_9qualifierE0EEELi0ELb0EE5__getB8ue170006Ev, symObjAddr: 0x3450, symBinAddr: 0x10000AEAC, symSize: 0x14 }
  - { offsetInCU: 0xC9D6, offset: 0x16F23, size: 0x8, addend: 0x0, symName: __ZNSt3__16vectorIN3glm3vecILi2EfLNS1_9qualifierE0EEENS_9allocatorIS4_EEE21_ConstructTransactionC1B8ue170006ERS7_m, symObjAddr: 0x3464, symBinAddr: 0x10000AEC0, symSize: 0x3C }
  - { offsetInCU: 0xCA1C, offset: 0x16F69, size: 0x8, addend: 0x0, symName: __ZNSt3__116allocator_traitsINS_9allocatorIN3glm3vecILi2EfLNS2_9qualifierE0EEEEEE9constructB8ue170006IS5_JRKS5_EvEEvRS6_PT_DpOT0_, symObjAddr: 0x34A0, symBinAddr: 0x10000AEFC, symSize: 0x34 }
  - { offsetInCU: 0xCA72, offset: 0x16FBF, size: 0x8, addend: 0x0, symName: __ZNSt3__16vectorIN3glm3vecILi2EfLNS1_9qualifierE0EEENS_9allocatorIS4_EEE21_ConstructTransactionD1B8ue170006Ev, symObjAddr: 0x34D4, symBinAddr: 0x10000AF30, symSize: 0x2C }
  - { offsetInCU: 0xCA9A, offset: 0x16FE7, size: 0x8, addend: 0x0, symName: __ZNSt3__16vectorIN3glm3vecILi2EfLNS1_9qualifierE0EEENS_9allocatorIS4_EEE21_ConstructTransactionC2B8ue170006ERS7_m, symObjAddr: 0x3500, symBinAddr: 0x10000AF5C, symSize: 0x44 }
  - { offsetInCU: 0xCAE0, offset: 0x1702D, size: 0x8, addend: 0x0, symName: __ZNSt3__19allocatorIN3glm3vecILi2EfLNS1_9qualifierE0EEEE9constructB8ue170006IS4_JRKS4_EEEvPT_DpOT0_, symObjAddr: 0x3544, symBinAddr: 0x10000AFA0, symSize: 0x28 }
  - { offsetInCU: 0xCB34, offset: 0x17081, size: 0x8, addend: 0x0, symName: __ZNSt3__16vectorIN3glm3vecILi2EfLNS1_9qualifierE0EEENS_9allocatorIS4_EEE21_ConstructTransactionD2B8ue170006Ev, symObjAddr: 0x356C, symBinAddr: 0x10000AFC8, symSize: 0x20 }
  - { offsetInCU: 0xCB5C, offset: 0x170A9, size: 0x8, addend: 0x0, symName: __ZNKSt3__16vectorIN3glm3vecILi2EfLNS1_9qualifierE0EEENS_9allocatorIS4_EEE11__recommendB8ue170006Em, symObjAddr: 0x358C, symBinAddr: 0x10000AFE8, symSize: 0xB4 }
  - { offsetInCU: 0xCBB0, offset: 0x170FD, size: 0x8, addend: 0x0, symName: __ZNSt3__114__split_bufferIN3glm3vecILi2EfLNS1_9qualifierE0EEERNS_9allocatorIS4_EEEC1EmmS7_, symObjAddr: 0x3640, symBinAddr: 0x10000B09C, symSize: 0x44 }
  - { offsetInCU: 0xCC05, offset: 0x17152, size: 0x8, addend: 0x0, symName: __ZNSt3__114__split_bufferIN3glm3vecILi2EfLNS1_9qualifierE0EEERNS_9allocatorIS4_EEED1Ev, symObjAddr: 0x3794, symBinAddr: 0x10000B1F0, symSize: 0x2C }
  - { offsetInCU: 0xCC30, offset: 0x1717D, size: 0x8, addend: 0x0, symName: __ZNKSt3__16vectorIN3glm3vecILi2EfLNS1_9qualifierE0EEENS_9allocatorIS4_EEE8max_sizeEv, symObjAddr: 0x37C0, symBinAddr: 0x10000B21C, symSize: 0x60 }
  - { offsetInCU: 0xCC57, offset: 0x171A4, size: 0x8, addend: 0x0, symName: __ZNKSt3__16vectorIN3glm3vecILi2EfLNS1_9qualifierE0EEENS_9allocatorIS4_EEE20__throw_length_errorB8ue170006Ev, symObjAddr: 0x3820, symBinAddr: 0x10000B27C, symSize: 0x1C }
  - { offsetInCU: 0xCC85, offset: 0x171D2, size: 0x8, addend: 0x0, symName: __ZNSt3__116allocator_traitsINS_9allocatorIN3glm3vecILi2EfLNS2_9qualifierE0EEEEEE8max_sizeB8ue170006IS6_vEEmRKS6_, symObjAddr: 0x383C, symBinAddr: 0x10000B298, symSize: 0x24 }
  - { offsetInCU: 0xCCB2, offset: 0x171FF, size: 0x8, addend: 0x0, symName: __ZNKSt3__16vectorIN3glm3vecILi2EfLNS1_9qualifierE0EEENS_9allocatorIS4_EEE7__allocB8ue170006Ev, symObjAddr: 0x3860, symBinAddr: 0x10000B2BC, symSize: 0x28 }
  - { offsetInCU: 0xCCD6, offset: 0x17223, size: 0x8, addend: 0x0, symName: __ZNKSt3__19allocatorIN3glm3vecILi2EfLNS1_9qualifierE0EEEE8max_sizeB8ue170006Ev, symObjAddr: 0x3888, symBinAddr: 0x10000B2E4, symSize: 0x14 }
  - { offsetInCU: 0xCCFA, offset: 0x17247, size: 0x8, addend: 0x0, symName: __ZNKSt3__117__compressed_pairIPN3glm3vecILi2EfLNS1_9qualifierE0EEENS_9allocatorIS4_EEE6secondB8ue170006Ev, symObjAddr: 0x389C, symBinAddr: 0x10000B2F8, symSize: 0x24 }
  - { offsetInCU: 0xCD1E, offset: 0x1726B, size: 0x8, addend: 0x0, symName: __ZNKSt3__122__compressed_pair_elemINS_9allocatorIN3glm3vecILi2EfLNS2_9qualifierE0EEEEELi1ELb1EE5__getB8ue170006Ev, symObjAddr: 0x38C0, symBinAddr: 0x10000B31C, symSize: 0x14 }
  - { offsetInCU: 0xCD42, offset: 0x1728F, size: 0x8, addend: 0x0, symName: __ZNSt3__114__split_bufferIN3glm3vecILi2EfLNS1_9qualifierE0EEERNS_9allocatorIS4_EEEC2EmmS7_, symObjAddr: 0x38D4, symBinAddr: 0x10000B330, symSize: 0xD4 }
  - { offsetInCU: 0xCDB5, offset: 0x17302, size: 0x8, addend: 0x0, symName: __ZNSt3__117__compressed_pairIPN3glm3vecILi2EfLNS1_9qualifierE0EEERNS_9allocatorIS4_EEEC1B8ue170006IDnS8_EEOT_OT0_, symObjAddr: 0x39A8, symBinAddr: 0x10000B404, symSize: 0x3C }
  - { offsetInCU: 0xCE0B, offset: 0x17358, size: 0x8, addend: 0x0, symName: __ZNSt3__114__split_bufferIN3glm3vecILi2EfLNS1_9qualifierE0EEERNS_9allocatorIS4_EEE7__allocB8ue170006Ev, symObjAddr: 0x3A24, symBinAddr: 0x10000B480, symSize: 0x28 }
  - { offsetInCU: 0xCE2F, offset: 0x1737C, size: 0x8, addend: 0x0, symName: __ZNSt3__114__split_bufferIN3glm3vecILi2EfLNS1_9qualifierE0EEERNS_9allocatorIS4_EEE9__end_capB8ue170006Ev, symObjAddr: 0x3A4C, symBinAddr: 0x10000B4A8, symSize: 0x28 }
  - { offsetInCU: 0xCE53, offset: 0x173A0, size: 0x8, addend: 0x0, symName: __ZNSt3__117__compressed_pairIPN3glm3vecILi2EfLNS1_9qualifierE0EEERNS_9allocatorIS4_EEEC2B8ue170006IDnS8_EEOT_OT0_, symObjAddr: 0x3A74, symBinAddr: 0x10000B4D0, symSize: 0x48 }
  - { offsetInCU: 0xCEA9, offset: 0x173F6, size: 0x8, addend: 0x0, symName: __ZNSt3__122__compressed_pair_elemIRNS_9allocatorIN3glm3vecILi2EfLNS2_9qualifierE0EEEEELi1ELb0EEC2B8ue170006IS7_vEEOT_, symObjAddr: 0x3ABC, symBinAddr: 0x10000B518, symSize: 0x20 }
  - { offsetInCU: 0xCEE9, offset: 0x17436, size: 0x8, addend: 0x0, symName: __ZNSt3__19allocatorIN3glm3vecILi2EfLNS1_9qualifierE0EEEE8allocateB8ue170006Em, symObjAddr: 0x3ADC, symBinAddr: 0x10000B538, symSize: 0x58 }
  - { offsetInCU: 0xCF1B, offset: 0x17468, size: 0x8, addend: 0x0, symName: __ZNSt3__117__compressed_pairIPN3glm3vecILi2EfLNS1_9qualifierE0EEERNS_9allocatorIS4_EEE6secondB8ue170006Ev, symObjAddr: 0x3B34, symBinAddr: 0x10000B590, symSize: 0x28 }
  - { offsetInCU: 0xCF3F, offset: 0x1748C, size: 0x8, addend: 0x0, symName: __ZNSt3__122__compressed_pair_elemIRNS_9allocatorIN3glm3vecILi2EfLNS2_9qualifierE0EEEEELi1ELb0EE5__getB8ue170006Ev, symObjAddr: 0x3B5C, symBinAddr: 0x10000B5B8, symSize: 0x18 }
  - { offsetInCU: 0xCF63, offset: 0x174B0, size: 0x8, addend: 0x0, symName: __ZNSt3__117__compressed_pairIPN3glm3vecILi2EfLNS1_9qualifierE0EEERNS_9allocatorIS4_EEE5firstB8ue170006Ev, symObjAddr: 0x3B74, symBinAddr: 0x10000B5D0, symSize: 0x24 }
  - { offsetInCU: 0xCF87, offset: 0x174D4, size: 0x8, addend: 0x0, symName: __ZNSt3__116reverse_iteratorIPN3glm3vecILi2EfLNS1_9qualifierE0EEEEC1B8ue170006ES5_, symObjAddr: 0x3C10, symBinAddr: 0x10000B66C, symSize: 0x34 }
  - { offsetInCU: 0xCFBD, offset: 0x1750A, size: 0x8, addend: 0x0, symName: __ZNKSt3__116reverse_iteratorIPN3glm3vecILi2EfLNS1_9qualifierE0EEEE4baseB8ue170006Ev, symObjAddr: 0x3C44, symBinAddr: 0x10000B6A0, symSize: 0x18 }
  - { offsetInCU: 0xCFE1, offset: 0x1752E, size: 0x8, addend: 0x0, symName: __ZNKSt3__16vectorIN3glm3vecILi2EfLNS1_9qualifierE0EEENS_9allocatorIS4_EEE14__annotate_newB8ue170006Em, symObjAddr: 0x3C98, symBinAddr: 0x10000B6F4, symSize: 0xAC }
  - { offsetInCU: 0xD02D, offset: 0x1757A, size: 0x8, addend: 0x0, symName: __ZNKSt3__111__move_loopINS_17_ClassicAlgPolicyEEclB8ue170006INS_16reverse_iteratorIPN3glm3vecILi2EfLNS5_9qualifierE0EEEEESA_SA_EENS_4pairIT_T1_EESC_T0_SD_, symObjAddr: 0x4034, symBinAddr: 0x10000BA90, symSize: 0xA0 }
  - { offsetInCU: 0xD09B, offset: 0x175E8, size: 0x8, addend: 0x0, symName: __ZNSt3__18_IterOpsINS_17_ClassicAlgPolicyEE11__iter_moveB8ue170006IRNS_16reverse_iteratorIPN3glm3vecILi2EfLNS5_9qualifierE0EEEEEEENS_9enable_ifIXsr12is_referenceIDTdeclsr3stdE7declvalIRT_EEEEE5valueEDTclsr3stdE4movedeclsr3stdE7declvalISE_EEEEE4typeEOSD_, symObjAddr: 0x4268, symBinAddr: 0x10000BCC4, symSize: 0x28 }
  - { offsetInCU: 0xD0C6, offset: 0x17613, size: 0x8, addend: 0x0, symName: __ZNKSt3__116reverse_iteratorIPN3glm3vecILi2EfLNS1_9qualifierE0EEEEdeB8ue170006Ev, symObjAddr: 0x4290, symBinAddr: 0x10000BCEC, symSize: 0x28 }
  - { offsetInCU: 0xD0F8, offset: 0x17645, size: 0x8, addend: 0x0, symName: __ZNSt3__116reverse_iteratorIPN3glm3vecILi2EfLNS1_9qualifierE0EEEEppB8ue170006Ev, symObjAddr: 0x42B8, symBinAddr: 0x10000BD14, symSize: 0x20 }
  - { offsetInCU: 0xD11D, offset: 0x1766A, size: 0x8, addend: 0x0, symName: __ZNSt3__18_IterOpsINS_17_ClassicAlgPolicyEE25__validate_iter_referenceB8ue170006IRNS_16reverse_iteratorIPN3glm3vecILi2EfLNS5_9qualifierE0EEEEEEEvv, symObjAddr: 0x42D8, symBinAddr: 0x10000BD34, symSize: 0x4 }
  - { offsetInCU: 0xD13A, offset: 0x17687, size: 0x8, addend: 0x0, symName: __ZNSt3__118__unwrap_iter_implINS_16reverse_iteratorIPN3glm3vecILi2EfLNS2_9qualifierE0EEEEELb0EE8__unwrapB8ue170006ES7_, symObjAddr: 0x42DC, symBinAddr: 0x10000BD38, symSize: 0x24 }
  - { offsetInCU: 0xD160, offset: 0x176AD, size: 0x8, addend: 0x0, symName: __ZNSt3__14pairINS_16reverse_iteratorIPN3glm3vecILi2EfLNS2_9qualifierE0EEEEES7_EC1B8ue170006IS7_S7_LPv0EEEOT_OT0_, symObjAddr: 0x4300, symBinAddr: 0x10000BD5C, symSize: 0x3C }
  - { offsetInCU: 0xD1BC, offset: 0x17709, size: 0x8, addend: 0x0, symName: __ZNSt3__14pairINS_16reverse_iteratorIPN3glm3vecILi2EfLNS2_9qualifierE0EEEEES7_EC2B8ue170006IS7_S7_LPv0EEEOT_OT0_, symObjAddr: 0x433C, symBinAddr: 0x10000BD98, symSize: 0x34 }
  - { offsetInCU: 0xD219, offset: 0x17766, size: 0x8, addend: 0x0, symName: __ZNSt3__118__unwrap_iter_implINS_16reverse_iteratorIPN3glm3vecILi2EfLNS2_9qualifierE0EEEEELb0EE8__rewrapB8ue170006ES7_S7_, symObjAddr: 0x4370, symBinAddr: 0x10000BDCC, symSize: 0x2C }
  - { offsetInCU: 0xD244, offset: 0x17791, size: 0x8, addend: 0x0, symName: __ZNSt3__116reverse_iteratorIPN3glm3vecILi2EfLNS1_9qualifierE0EEEEC2B8ue170006ES5_, symObjAddr: 0x439C, symBinAddr: 0x10000BDF8, symSize: 0x28 }
  - { offsetInCU: 0xD27A, offset: 0x177C7, size: 0x8, addend: 0x0, symName: __ZNSt3__114__split_bufferIN3glm3vecILi2EfLNS1_9qualifierE0EEERNS_9allocatorIS4_EEED2Ev, symObjAddr: 0x43C4, symBinAddr: 0x10000BE20, symSize: 0x8C }
  - { offsetInCU: 0xD2A5, offset: 0x177F2, size: 0x8, addend: 0x0, symName: __ZNSt3__114__split_bufferIN3glm3vecILi2EfLNS1_9qualifierE0EEERNS_9allocatorIS4_EEE5clearB8ue170006Ev, symObjAddr: 0x4450, symBinAddr: 0x10000BEAC, symSize: 0x28 }
  - { offsetInCU: 0xD2C9, offset: 0x17816, size: 0x8, addend: 0x0, symName: __ZNKSt3__114__split_bufferIN3glm3vecILi2EfLNS1_9qualifierE0EEERNS_9allocatorIS4_EEE8capacityB8ue170006Ev, symObjAddr: 0x4478, symBinAddr: 0x10000BED4, symSize: 0x40 }
  - { offsetInCU: 0xD2ED, offset: 0x1783A, size: 0x8, addend: 0x0, symName: __ZNSt3__114__split_bufferIN3glm3vecILi2EfLNS1_9qualifierE0EEERNS_9allocatorIS4_EEE17__destruct_at_endB8ue170006EPS4_, symObjAddr: 0x44B8, symBinAddr: 0x10000BF14, symSize: 0x2C }
  - { offsetInCU: 0xD31F, offset: 0x1786C, size: 0x8, addend: 0x0, symName: __ZNSt3__114__split_bufferIN3glm3vecILi2EfLNS1_9qualifierE0EEERNS_9allocatorIS4_EEE17__destruct_at_endB8ue170006EPS4_NS_17integral_constantIbLb0EEE, symObjAddr: 0x44E4, symBinAddr: 0x10000BF40, symSize: 0x80 }
  - { offsetInCU: 0xD35E, offset: 0x178AB, size: 0x8, addend: 0x0, symName: __ZNKSt3__114__split_bufferIN3glm3vecILi2EfLNS1_9qualifierE0EEERNS_9allocatorIS4_EEE9__end_capB8ue170006Ev, symObjAddr: 0x4564, symBinAddr: 0x10000BFC0, symSize: 0x28 }
  - { offsetInCU: 0xD382, offset: 0x178CF, size: 0x8, addend: 0x0, symName: __ZNKSt3__117__compressed_pairIPN3glm3vecILi2EfLNS1_9qualifierE0EEERNS_9allocatorIS4_EEE5firstB8ue170006Ev, symObjAddr: 0x458C, symBinAddr: 0x10000BFE8, symSize: 0x24 }
  - { offsetInCU: 0xD3A6, offset: 0x178F3, size: 0x8, addend: 0x0, symName: __ZNSt3__112basic_stringIcNS_11char_traitsIcEENS_9allocatorIcEEEC2B8ue170006Ev, symObjAddr: 0x45B0, symBinAddr: 0x10000C00C, symSize: 0x48 }
  - { offsetInCU: 0xD3CE, offset: 0x1791B, size: 0x8, addend: 0x0, symName: __ZNSt3__117__compressed_pairINS_12basic_stringIcNS_11char_traitsIcEENS_9allocatorIcEEE5__repES5_EC1B8ue170006INS_18__default_init_tagESA_EEOT_OT0_, symObjAddr: 0x45F8, symBinAddr: 0x10000C054, symSize: 0x3C }
  - { offsetInCU: 0xD424, offset: 0x17971, size: 0x8, addend: 0x0, symName: __ZNSt3__112basic_stringIcNS_11char_traitsIcEENS_9allocatorIcEEE14__default_initB8ue170006Ev, symObjAddr: 0x4634, symBinAddr: 0x10000C090, symSize: 0x40 }
  - { offsetInCU: 0xD448, offset: 0x17995, size: 0x8, addend: 0x0, symName: __ZNSt3__117__compressed_pairINS_12basic_stringIcNS_11char_traitsIcEENS_9allocatorIcEEE5__repES5_EC2B8ue170006INS_18__default_init_tagESA_EEOT_OT0_, symObjAddr: 0x4674, symBinAddr: 0x10000C0D0, symSize: 0x3C }
  - { offsetInCU: 0xD49E, offset: 0x179EB, size: 0x8, addend: 0x0, symName: __ZNSt3__122__compressed_pair_elemINS_12basic_stringIcNS_11char_traitsIcEENS_9allocatorIcEEE5__repELi0ELb0EEC2B8ue170006ENS_18__default_init_tagE, symObjAddr: 0x46B0, symBinAddr: 0x10000C10C, symSize: 0x14 }
  - { offsetInCU: 0xD4D0, offset: 0x17A1D, size: 0x8, addend: 0x0, symName: __ZNSt3__122__compressed_pair_elemINS_9allocatorIcEELi1ELb1EEC2B8ue170006ENS_18__default_init_tagE, symObjAddr: 0x46C4, symBinAddr: 0x10000C120, symSize: 0x2C }
  - { offsetInCU: 0xD502, offset: 0x17A4F, size: 0x8, addend: 0x0, symName: __ZNSt3__19allocatorIcEC2B8ue170006Ev, symObjAddr: 0x46F0, symBinAddr: 0x10000C14C, symSize: 0x2C }
  - { offsetInCU: 0xD52A, offset: 0x17A77, size: 0x8, addend: 0x0, symName: __ZNSt3__116__non_trivial_ifILb1ENS_9allocatorIcEEEC2B8ue170006Ev, symObjAddr: 0x471C, symBinAddr: 0x10000C178, symSize: 0x14 }
  - { offsetInCU: 0xD552, offset: 0x17A9F, size: 0x8, addend: 0x0, symName: __ZNSt3__117__compressed_pairINS_12basic_stringIcNS_11char_traitsIcEENS_9allocatorIcEEE5__repES5_E5firstB8ue170006Ev, symObjAddr: 0x4730, symBinAddr: 0x10000C18C, symSize: 0x24 }
  - { offsetInCU: 0xD576, offset: 0x17AC3, size: 0x8, addend: 0x0, symName: __ZNSt3__122__compressed_pair_elemINS_12basic_stringIcNS_11char_traitsIcEENS_9allocatorIcEEE5__repELi0ELb0EE5__getB8ue170006Ev, symObjAddr: 0x4754, symBinAddr: 0x10000C1B0, symSize: 0x14 }
  - { offsetInCU: 0xD59A, offset: 0x17AE7, size: 0x8, addend: 0x0, symName: __ZNSt3__16vectorIjNS_9allocatorIjEEE9__end_capB8ue170006Ev, symObjAddr: 0x4768, symBinAddr: 0x10000C1C4, symSize: 0x28 }
  - { offsetInCU: 0xD5BE, offset: 0x17B0B, size: 0x8, addend: 0x0, symName: __ZNSt3__16vectorIjNS_9allocatorIjEEE22__construct_one_at_endB8ue170006IJRKjEEEvDpOT_, symObjAddr: 0x4790, symBinAddr: 0x10000C1EC, symSize: 0x90 }
  - { offsetInCU: 0xD60B, offset: 0x17B58, size: 0x8, addend: 0x0, symName: __ZNSt3__16vectorIjNS_9allocatorIjEEE21__push_back_slow_pathIRKjEEvOT_, symObjAddr: 0x4820, symBinAddr: 0x10000C27C, symSize: 0xD8 }
  - { offsetInCU: 0xD668, offset: 0x17BB5, size: 0x8, addend: 0x0, symName: __ZNSt3__117__compressed_pairIPjNS_9allocatorIjEEE5firstB8ue170006Ev, symObjAddr: 0x48F8, symBinAddr: 0x10000C354, symSize: 0x24 }
  - { offsetInCU: 0xD68C, offset: 0x17BD9, size: 0x8, addend: 0x0, symName: __ZNSt3__122__compressed_pair_elemIPjLi0ELb0EE5__getB8ue170006Ev, symObjAddr: 0x491C, symBinAddr: 0x10000C378, symSize: 0x14 }
  - { offsetInCU: 0xD6C9, offset: 0x17C16, size: 0x8, addend: 0x0, symName: __ZNSt3__16vectorIjNS_9allocatorIjEEE21_ConstructTransactionC1B8ue170006ERS3_m, symObjAddr: 0x4930, symBinAddr: 0x10000C38C, symSize: 0x3C }
  - { offsetInCU: 0xD70F, offset: 0x17C5C, size: 0x8, addend: 0x0, symName: __ZNSt3__116allocator_traitsINS_9allocatorIjEEE9constructB8ue170006IjJRKjEvEEvRS2_PT_DpOT0_, symObjAddr: 0x496C, symBinAddr: 0x10000C3C8, symSize: 0x34 }
  - { offsetInCU: 0xD765, offset: 0x17CB2, size: 0x8, addend: 0x0, symName: __ZNSt3__16vectorIjNS_9allocatorIjEEE21_ConstructTransactionD1B8ue170006Ev, symObjAddr: 0x49A0, symBinAddr: 0x10000C3FC, symSize: 0x2C }
  - { offsetInCU: 0xD78D, offset: 0x17CDA, size: 0x8, addend: 0x0, symName: __ZNSt3__16vectorIjNS_9allocatorIjEEE21_ConstructTransactionC2B8ue170006ERS3_m, symObjAddr: 0x49CC, symBinAddr: 0x10000C428, symSize: 0x44 }
  - { offsetInCU: 0xD7D3, offset: 0x17D20, size: 0x8, addend: 0x0, symName: __ZNSt3__19allocatorIjE9constructB8ue170006IjJRKjEEEvPT_DpOT0_, symObjAddr: 0x4A10, symBinAddr: 0x10000C46C, symSize: 0x28 }
  - { offsetInCU: 0xD827, offset: 0x17D74, size: 0x8, addend: 0x0, symName: __ZNSt3__16vectorIjNS_9allocatorIjEEE21_ConstructTransactionD2B8ue170006Ev, symObjAddr: 0x4A38, symBinAddr: 0x10000C494, symSize: 0x20 }
  - { offsetInCU: 0xD84F, offset: 0x17D9C, size: 0x8, addend: 0x0, symName: __ZNKSt3__16vectorIjNS_9allocatorIjEEE11__recommendB8ue170006Em, symObjAddr: 0x4A58, symBinAddr: 0x10000C4B4, symSize: 0xB4 }
  - { offsetInCU: 0xD8A3, offset: 0x17DF0, size: 0x8, addend: 0x0, symName: __ZNSt3__114__split_bufferIjRNS_9allocatorIjEEEC1EmmS3_, symObjAddr: 0x4B0C, symBinAddr: 0x10000C568, symSize: 0x44 }
  - { offsetInCU: 0xD8F8, offset: 0x17E45, size: 0x8, addend: 0x0, symName: __ZNSt3__114__split_bufferIjRNS_9allocatorIjEEED1Ev, symObjAddr: 0x4C60, symBinAddr: 0x10000C6BC, symSize: 0x2C }
  - { offsetInCU: 0xD923, offset: 0x17E70, size: 0x8, addend: 0x0, symName: __ZNKSt3__16vectorIjNS_9allocatorIjEEE8max_sizeEv, symObjAddr: 0x4C8C, symBinAddr: 0x10000C6E8, symSize: 0x60 }
  - { offsetInCU: 0xD94A, offset: 0x17E97, size: 0x8, addend: 0x0, symName: __ZNKSt3__16vectorIjNS_9allocatorIjEEE20__throw_length_errorB8ue170006Ev, symObjAddr: 0x4CEC, symBinAddr: 0x10000C748, symSize: 0x1C }
  - { offsetInCU: 0xD978, offset: 0x17EC5, size: 0x8, addend: 0x0, symName: __ZNSt3__116allocator_traitsINS_9allocatorIjEEE8max_sizeB8ue170006IS2_vEEmRKS2_, symObjAddr: 0x4D08, symBinAddr: 0x10000C764, symSize: 0x24 }
  - { offsetInCU: 0xD9A5, offset: 0x17EF2, size: 0x8, addend: 0x0, symName: __ZNKSt3__16vectorIjNS_9allocatorIjEEE7__allocB8ue170006Ev, symObjAddr: 0x4D2C, symBinAddr: 0x10000C788, symSize: 0x28 }
  - { offsetInCU: 0xD9C9, offset: 0x17F16, size: 0x8, addend: 0x0, symName: __ZNKSt3__19allocatorIjE8max_sizeB8ue170006Ev, symObjAddr: 0x4D54, symBinAddr: 0x10000C7B0, symSize: 0x14 }
  - { offsetInCU: 0xD9ED, offset: 0x17F3A, size: 0x8, addend: 0x0, symName: __ZNKSt3__117__compressed_pairIPjNS_9allocatorIjEEE6secondB8ue170006Ev, symObjAddr: 0x4D68, symBinAddr: 0x10000C7C4, symSize: 0x24 }
  - { offsetInCU: 0xDA11, offset: 0x17F5E, size: 0x8, addend: 0x0, symName: __ZNKSt3__122__compressed_pair_elemINS_9allocatorIjEELi1ELb1EE5__getB8ue170006Ev, symObjAddr: 0x4D8C, symBinAddr: 0x10000C7E8, symSize: 0x14 }
  - { offsetInCU: 0xDA35, offset: 0x17F82, size: 0x8, addend: 0x0, symName: __ZNSt3__114__split_bufferIjRNS_9allocatorIjEEEC2EmmS3_, symObjAddr: 0x4DA0, symBinAddr: 0x10000C7FC, symSize: 0xD4 }
  - { offsetInCU: 0xDAA8, offset: 0x17FF5, size: 0x8, addend: 0x0, symName: __ZNSt3__117__compressed_pairIPjRNS_9allocatorIjEEEC1B8ue170006IDnS4_EEOT_OT0_, symObjAddr: 0x4E74, symBinAddr: 0x10000C8D0, symSize: 0x3C }
  - { offsetInCU: 0xDAFE, offset: 0x1804B, size: 0x8, addend: 0x0, symName: __ZNSt3__114__split_bufferIjRNS_9allocatorIjEEE7__allocB8ue170006Ev, symObjAddr: 0x4EF0, symBinAddr: 0x10000C94C, symSize: 0x28 }
  - { offsetInCU: 0xDB22, offset: 0x1806F, size: 0x8, addend: 0x0, symName: __ZNSt3__114__split_bufferIjRNS_9allocatorIjEEE9__end_capB8ue170006Ev, symObjAddr: 0x4F18, symBinAddr: 0x10000C974, symSize: 0x28 }
  - { offsetInCU: 0xDB46, offset: 0x18093, size: 0x8, addend: 0x0, symName: __ZNSt3__117__compressed_pairIPjRNS_9allocatorIjEEEC2B8ue170006IDnS4_EEOT_OT0_, symObjAddr: 0x4F40, symBinAddr: 0x10000C99C, symSize: 0x48 }
  - { offsetInCU: 0xDB9C, offset: 0x180E9, size: 0x8, addend: 0x0, symName: __ZNSt3__122__compressed_pair_elemIRNS_9allocatorIjEELi1ELb0EEC2B8ue170006IS3_vEEOT_, symObjAddr: 0x4F88, symBinAddr: 0x10000C9E4, symSize: 0x20 }
  - { offsetInCU: 0xDBDC, offset: 0x18129, size: 0x8, addend: 0x0, symName: __ZNSt3__19allocatorIjE8allocateB8ue170006Em, symObjAddr: 0x4FA8, symBinAddr: 0x10000CA04, symSize: 0x58 }
  - { offsetInCU: 0xDC0E, offset: 0x1815B, size: 0x8, addend: 0x0, symName: __ZNSt3__117__compressed_pairIPjRNS_9allocatorIjEEE6secondB8ue170006Ev, symObjAddr: 0x5000, symBinAddr: 0x10000CA5C, symSize: 0x28 }
  - { offsetInCU: 0xDC32, offset: 0x1817F, size: 0x8, addend: 0x0, symName: __ZNSt3__122__compressed_pair_elemIRNS_9allocatorIjEELi1ELb0EE5__getB8ue170006Ev, symObjAddr: 0x5028, symBinAddr: 0x10000CA84, symSize: 0x18 }
  - { offsetInCU: 0xDC56, offset: 0x181A3, size: 0x8, addend: 0x0, symName: __ZNSt3__117__compressed_pairIPjRNS_9allocatorIjEEE5firstB8ue170006Ev, symObjAddr: 0x5040, symBinAddr: 0x10000CA9C, symSize: 0x24 }
  - { offsetInCU: 0xDC7A, offset: 0x181C7, size: 0x8, addend: 0x0, symName: __ZNSt3__116reverse_iteratorIPjEC1B8ue170006ES1_, symObjAddr: 0x50DC, symBinAddr: 0x10000CB38, symSize: 0x34 }
  - { offsetInCU: 0xDCB0, offset: 0x181FD, size: 0x8, addend: 0x0, symName: __ZNKSt3__116reverse_iteratorIPjE4baseB8ue170006Ev, symObjAddr: 0x5110, symBinAddr: 0x10000CB6C, symSize: 0x18 }
  - { offsetInCU: 0xDCD4, offset: 0x18221, size: 0x8, addend: 0x0, symName: __ZNKSt3__16vectorIjNS_9allocatorIjEEE14__annotate_newB8ue170006Em, symObjAddr: 0x5164, symBinAddr: 0x10000CBC0, symSize: 0xAC }
  - { offsetInCU: 0xDD20, offset: 0x1826D, size: 0x8, addend: 0x0, symName: __ZNKSt3__111__move_loopINS_17_ClassicAlgPolicyEEclB8ue170006INS_16reverse_iteratorIPjEES6_S6_EENS_4pairIT_T1_EES8_T0_S9_, symObjAddr: 0x5500, symBinAddr: 0x10000CF5C, symSize: 0xA0 }
  - { offsetInCU: 0xDD8E, offset: 0x182DB, size: 0x8, addend: 0x0, symName: __ZNSt3__18_IterOpsINS_17_ClassicAlgPolicyEE11__iter_moveB8ue170006IRNS_16reverse_iteratorIPjEEEENS_9enable_ifIXsr12is_referenceIDTdeclsr3stdE7declvalIRT_EEEEE5valueEDTclsr3stdE4movedeclsr3stdE7declvalISA_EEEEE4typeEOS9_, symObjAddr: 0x5734, symBinAddr: 0x10000D190, symSize: 0x28 }
  - { offsetInCU: 0xDDB9, offset: 0x18306, size: 0x8, addend: 0x0, symName: __ZNKSt3__116reverse_iteratorIPjEdeB8ue170006Ev, symObjAddr: 0x575C, symBinAddr: 0x10000D1B8, symSize: 0x28 }
  - { offsetInCU: 0xDDEB, offset: 0x18338, size: 0x8, addend: 0x0, symName: __ZNSt3__116reverse_iteratorIPjEppB8ue170006Ev, symObjAddr: 0x5784, symBinAddr: 0x10000D1E0, symSize: 0x20 }
  - { offsetInCU: 0xDE10, offset: 0x1835D, size: 0x8, addend: 0x0, symName: __ZNSt3__18_IterOpsINS_17_ClassicAlgPolicyEE25__validate_iter_referenceB8ue170006IRNS_16reverse_iteratorIPjEEEEvv, symObjAddr: 0x57A4, symBinAddr: 0x10000D200, symSize: 0x4 }
  - { offsetInCU: 0xDE2D, offset: 0x1837A, size: 0x8, addend: 0x0, symName: __ZNSt3__118__unwrap_iter_implINS_16reverse_iteratorIPjEELb0EE8__unwrapB8ue170006ES3_, symObjAddr: 0x57A8, symBinAddr: 0x10000D204, symSize: 0x24 }
  - { offsetInCU: 0xDE53, offset: 0x183A0, size: 0x8, addend: 0x0, symName: __ZNSt3__14pairINS_16reverse_iteratorIPjEES3_EC1B8ue170006IS3_S3_LPv0EEEOT_OT0_, symObjAddr: 0x57CC, symBinAddr: 0x10000D228, symSize: 0x3C }
  - { offsetInCU: 0xDEAF, offset: 0x183FC, size: 0x8, addend: 0x0, symName: __ZNSt3__14pairINS_16reverse_iteratorIPjEES3_EC2B8ue170006IS3_S3_LPv0EEEOT_OT0_, symObjAddr: 0x5808, symBinAddr: 0x10000D264, symSize: 0x34 }
  - { offsetInCU: 0xDF0C, offset: 0x18459, size: 0x8, addend: 0x0, symName: __ZNSt3__118__unwrap_iter_implINS_16reverse_iteratorIPjEELb0EE8__rewrapB8ue170006ES3_S3_, symObjAddr: 0x583C, symBinAddr: 0x10000D298, symSize: 0x2C }
  - { offsetInCU: 0xDF37, offset: 0x18484, size: 0x8, addend: 0x0, symName: __ZNSt3__116reverse_iteratorIPjEC2B8ue170006ES1_, symObjAddr: 0x5868, symBinAddr: 0x10000D2C4, symSize: 0x28 }
  - { offsetInCU: 0xDF6D, offset: 0x184BA, size: 0x8, addend: 0x0, symName: __ZNSt3__114__split_bufferIjRNS_9allocatorIjEEED2Ev, symObjAddr: 0x5890, symBinAddr: 0x10000D2EC, symSize: 0x8C }
  - { offsetInCU: 0xDF98, offset: 0x184E5, size: 0x8, addend: 0x0, symName: __ZNSt3__114__split_bufferIjRNS_9allocatorIjEEE5clearB8ue170006Ev, symObjAddr: 0x591C, symBinAddr: 0x10000D378, symSize: 0x28 }
  - { offsetInCU: 0xDFBC, offset: 0x18509, size: 0x8, addend: 0x0, symName: __ZNKSt3__114__split_bufferIjRNS_9allocatorIjEEE8capacityB8ue170006Ev, symObjAddr: 0x5944, symBinAddr: 0x10000D3A0, symSize: 0x40 }
  - { offsetInCU: 0xDFE0, offset: 0x1852D, size: 0x8, addend: 0x0, symName: __ZNSt3__114__split_bufferIjRNS_9allocatorIjEEE17__destruct_at_endB8ue170006EPj, symObjAddr: 0x5984, symBinAddr: 0x10000D3E0, symSize: 0x2C }
  - { offsetInCU: 0xE012, offset: 0x1855F, size: 0x8, addend: 0x0, symName: __ZNSt3__114__split_bufferIjRNS_9allocatorIjEEE17__destruct_at_endB8ue170006EPjNS_17integral_constantIbLb0EEE, symObjAddr: 0x59B0, symBinAddr: 0x10000D40C, symSize: 0x80 }
  - { offsetInCU: 0xE051, offset: 0x1859E, size: 0x8, addend: 0x0, symName: __ZNKSt3__114__split_bufferIjRNS_9allocatorIjEEE9__end_capB8ue170006Ev, symObjAddr: 0x5A30, symBinAddr: 0x10000D48C, symSize: 0x28 }
  - { offsetInCU: 0xE075, offset: 0x185C2, size: 0x8, addend: 0x0, symName: __ZNKSt3__117__compressed_pairIPjRNS_9allocatorIjEEE5firstB8ue170006Ev, symObjAddr: 0x5A58, symBinAddr: 0x10000D4B4, symSize: 0x24 }
  - { offsetInCU: 0x26, offset: 0x18734, size: 0x8, addend: 0x0, symName: __Z22RotationBetweenVectorsN3glm3vecILi3EfLNS_9qualifierE0EEES2_, symObjAddr: 0x0, symBinAddr: 0x10000D4D8, symSize: 0x258 }
  - { offsetInCU: 0x211, offset: 0x1891F, size: 0x8, addend: 0x0, symName: __ZN3glm7length2ILi3EfLNS_9qualifierE0EEET0_RKNS_3vecIXT_ES2_XT1_EEE, symObjAddr: 0x348, symBinAddr: 0x10000D730, symSize: 0x24 }
  - { offsetInCU: 0x25A, offset: 0x18968, size: 0x8, addend: 0x0, symName: __ZN3glm9angleAxisIfLNS_9qualifierE0EEENS_3quaIT_XT0_EEERKS3_RKNS_3vecILi3ES3_XT0_EEE, symObjAddr: 0x36C, symBinAddr: 0x10000D754, symSize: 0x94 }
  - { offsetInCU: 0x2C3, offset: 0x189D1, size: 0x8, addend: 0x0, symName: __ZN3glmmlIfLNS_9qualifierE0EEENS_3vecILi3ET_XT0_EEERKNS_3quaIS3_XT0_EEERKS4_, symObjAddr: 0x620, symBinAddr: 0x10000D9F0, symSize: 0xF8 }
  - { offsetInCU: 0x341, offset: 0x18A4F, size: 0x8, addend: 0x0, symName: __ZN3glmmlIfLNS_9qualifierE0EEENS_3quaIT_XT0_EEERKS4_S6_, symObjAddr: 0x718, symBinAddr: 0x10000DAE8, symSize: 0x50 }
  - { offsetInCU: 0x391, offset: 0x18A9F, size: 0x8, addend: 0x0, symName: __ZN3glm3dotIfLNS_9qualifierE0EEET_RKNS_3quaIS2_XT0_EEES6_, symObjAddr: 0x9A8, symBinAddr: 0x10000DD78, symSize: 0x2C }
  - { offsetInCU: 0x3DE, offset: 0x18AEC, size: 0x8, addend: 0x0, symName: __ZN3glmmlIfLNS_9qualifierE0EEENS_3quaIT_XT0_EEERKS4_RKS3_, symObjAddr: 0x9D4, symBinAddr: 0x10000DDA4, symSize: 0x88 }
  - { offsetInCU: 0x42E, offset: 0x18B3C, size: 0x8, addend: 0x0, symName: __ZN3glmdvIfLNS_9qualifierE0EEENS_3quaIT_XT0_EEERKS4_RKS3_, symObjAddr: 0xA80, symBinAddr: 0x10000DE50, symSize: 0x88 }
  - { offsetInCU: 0x47E, offset: 0x18B8C, size: 0x8, addend: 0x0, symName: __ZN3glmplIfLNS_9qualifierE0EEENS_3quaIT_XT0_EEERKS4_S6_, symObjAddr: 0xB08, symBinAddr: 0x10000DED8, symSize: 0x50 }
  - { offsetInCU: 0x4CE, offset: 0x18BDC, size: 0x8, addend: 0x0, symName: __ZN3glmmlIfLNS_9qualifierE0EEENS_3quaIT_XT0_EEERKS3_RKS4_, symObjAddr: 0xB58, symBinAddr: 0x10000DF28, symSize: 0x4C }
  - { offsetInCU: 0x51E, offset: 0x18C2C, size: 0x8, addend: 0x0, symName: __ZN3glm9normalizeIfLNS_9qualifierE0EEENS_3quaIT_XT0_EEERKS4_, symObjAddr: 0xBC8, symBinAddr: 0x10000DF74, symSize: 0xC4 }
  - { offsetInCU: 0x646, offset: 0x18D54, size: 0x8, addend: 0x0, symName: __ZN3glm6lengthIfLNS_9qualifierE0EEET_RKNS_3quaIS2_XT0_EEE, symObjAddr: 0x1584, symBinAddr: 0x10000E584, symSize: 0x2C }
  - { offsetInCU: 0x156D, offset: 0x19C7B, size: 0x8, addend: 0x0, symName: __Z22RotationBetweenVectorsN3glm3vecILi3EfLNS_9qualifierE0EEES2_, symObjAddr: 0x0, symBinAddr: 0x10000D4D8, symSize: 0x258 }
  - { offsetInCU: 0x15E1, offset: 0x19CEF, size: 0x8, addend: 0x0, symName: __ZN3glm3quaIfLNS_9qualifierE0EEC1Effff, symObjAddr: 0x418, symBinAddr: 0x10000D7E8, symSize: 0x4C }
  - { offsetInCU: 0x1643, offset: 0x19D51, size: 0x8, addend: 0x0, symName: __Z6LookAtN3glm3vecILi3EfLNS_9qualifierE0EEES2_, symObjAddr: 0x464, symBinAddr: 0x10000D834, symSize: 0x1BC }
  - { offsetInCU: 0x16B8, offset: 0x19DC6, size: 0x8, addend: 0x0, symName: __Z13RotateTowardsN3glm3quaIfLNS_9qualifierE0EEES2_f, symObjAddr: 0x768, symBinAddr: 0x10000DB38, symSize: 0x240 }
  - { offsetInCU: 0x173A, offset: 0x19E48, size: 0x8, addend: 0x0, symName: __Z4acosB8ue170006f, symObjAddr: 0xA5C, symBinAddr: 0x10000DE2C, symSize: 0x24 }
  - { offsetInCU: 0x1768, offset: 0x19E76, size: 0x8, addend: 0x0, symName: __Z5testsv, symObjAddr: 0xC8C, symBinAddr: 0x10000E038, symSize: 0x1EC }
  - { offsetInCU: 0x1813, offset: 0x19F21, size: 0x8, addend: 0x0, symName: __ZN3glm6detail15compute_length2ILi3EfLNS_9qualifierE0ELb0EE4callERKNS_3vecILi3EfLS2_0EEE, symObjAddr: 0x1100, symBinAddr: 0x10000E224, symSize: 0x28 }
  - { offsetInCU: 0x1835, offset: 0x19F43, size: 0x8, addend: 0x0, symName: __ZN3glm3quaIfLNS_9qualifierE0EEC1EfRKNS_3vecILi3EfLS1_0EEE, symObjAddr: 0x114C, symBinAddr: 0x10000E24C, symSize: 0x3C }
  - { offsetInCU: 0x187B, offset: 0x19F89, size: 0x8, addend: 0x0, symName: __ZN3glm3quaIfLNS_9qualifierE0EEC2EfRKNS_3vecILi3EfLS1_0EEE, symObjAddr: 0x1188, symBinAddr: 0x10000E288, symSize: 0x48 }
  - { offsetInCU: 0x18C1, offset: 0x19FCF, size: 0x8, addend: 0x0, symName: __ZN3glm3quaIfLNS_9qualifierE0EEC2Effff, symObjAddr: 0x11D0, symBinAddr: 0x10000E2D0, symSize: 0x44 }
  - { offsetInCU: 0x1923, offset: 0x1A031, size: 0x8, addend: 0x0, symName: __ZN3glm3quaIfLNS_9qualifierE0EEmLIfEERS2_RKNS0_IT_LS1_0EEE, symObjAddr: 0x1284, symBinAddr: 0x10000E314, symSize: 0xFC }
  - { offsetInCU: 0x197F, offset: 0x1A08D, size: 0x8, addend: 0x0, symName: __ZN3glm6detail11compute_dotINS_3quaIfLNS_9qualifierE0EEEfLb0EE4callERKS4_S7_, symObjAddr: 0x1380, symBinAddr: 0x10000E410, symSize: 0x94 }
  - { offsetInCU: 0x19BD, offset: 0x1A0CB, size: 0x8, addend: 0x0, symName: __ZN3glm3quaIfLNS_9qualifierE0EEpLIfEERS2_RKNS0_IT_LS1_0EEE, symObjAddr: 0x14A4, symBinAddr: 0x10000E4A4, symSize: 0x58 }
  - { offsetInCU: 0x19FB, offset: 0x1A109, size: 0x8, addend: 0x0, symName: __ZN3glm6detail16compute_quat_addIfLNS_9qualifierE0ELb0EE4callERKNS_3quaIfLS2_0EEES7_, symObjAddr: 0x14FC, symBinAddr: 0x10000E4FC, symSize: 0x88 }
  - { offsetInCU: 0x6319, offset: 0x20457, size: 0x8, addend: 0x0, symName: __ZNSt3__17getlineB8ue170006IcNS_11char_traitsIcEENS_9allocatorIcEEEERNS_13basic_istreamIT_T0_EES9_RNS_12basic_stringIS6_S7_T1_EE, symObjAddr: 0xA38, symBinAddr: 0x10000EFBC, symSize: 0x5C }
  - { offsetInCU: 0x637C, offset: 0x204BA, size: 0x8, addend: 0x0, symName: __ZNSt3__112__to_addressB8ue170006IKcEEPT_S3_, symObjAddr: 0xF44, symBinAddr: 0x10000F304, symSize: 0x14 }
  - { offsetInCU: 0x63E4, offset: 0x20522, size: 0x8, addend: 0x0, symName: __ZNSt3__118__constexpr_strlenB8ue170006EPKc, symObjAddr: 0x1304, symBinAddr: 0x10000F6C4, symSize: 0x24 }
  - { offsetInCU: 0x6410, offset: 0x2054E, size: 0x8, addend: 0x0, symName: __ZNSt3__17getlineB8ue170006IcNS_11char_traitsIcEENS_9allocatorIcEEEERNS_13basic_istreamIT_T0_EES9_RNS_12basic_stringIS6_S7_T1_EES6_, symObjAddr: 0x1328, symBinAddr: 0x10000F6E8, symSize: 0x238 }
  - { offsetInCU: 0x6703, offset: 0x20841, size: 0x8, addend: 0x0, symName: __ZNSt3__19use_facetB8ue170006INS_5ctypeIcEEEERKT_RKNS_6localeE, symObjAddr: 0x1ADC, symBinAddr: 0x10000FE9C, symSize: 0x2C }
  - { offsetInCU: 0x6BDB, offset: 0x20D19, size: 0x8, addend: 0x0, symName: __ZNSt3__122__make_exception_guardB8ue170006INS_6vectorIcNS_9allocatorIcEEE16__destroy_vectorEEENS_28__exception_guard_exceptionsIT_EES7_, symObjAddr: 0x1CA0, symBinAddr: 0x100010060, symSize: 0x40 }
  - { offsetInCU: 0x6C10, offset: 0x20D4E, size: 0x8, addend: 0x0, symName: __ZNSt3__119__allocate_at_leastB8ue170006INS_9allocatorIcEEEENS_19__allocation_resultINS_16allocator_traitsIT_E7pointerEEERS5_m, symObjAddr: 0x2020, symBinAddr: 0x1000103E0, symSize: 0x40 }
  - { offsetInCU: 0x6C53, offset: 0x20D91, size: 0x8, addend: 0x0, symName: __ZNSt3__112__to_addressB8ue170006IcEEPT_S2_, symObjAddr: 0x2524, symBinAddr: 0x1000106B0, symSize: 0x14 }
  - { offsetInCU: 0x8DB2, offset: 0x22EF0, size: 0x8, addend: 0x0, symName: __Z11LoadShadersPKcS0_, symObjAddr: 0x0, symBinAddr: 0x10000E5B0, symSize: 0x840 }
  - { offsetInCU: 0x9094, offset: 0x231D2, size: 0x8, addend: 0x0, symName: __ZNSt3__114basic_ifstreamIcNS_11char_traitsIcEEEC1EPKcj, symObjAddr: 0x86C, symBinAddr: 0x10000EDF0, symSize: 0x16C }
  - { offsetInCU: 0x90DD, offset: 0x2321B, size: 0x8, addend: 0x0, symName: __ZNKSt3__114basic_ifstreamIcNS_11char_traitsIcEEE7is_openEv, symObjAddr: 0x9D8, symBinAddr: 0x10000EF5C, symSize: 0x2C }
  - { offsetInCU: 0x9109, offset: 0x23247, size: 0x8, addend: 0x0, symName: __ZNSt3__112basic_stringIcNS_11char_traitsIcEENS_9allocatorIcEEEC1B8ue170006ILi0EEEPKc, symObjAddr: 0xA04, symBinAddr: 0x10000EF88, symSize: 0x34 }
  - { offsetInCU: 0x9147, offset: 0x23285, size: 0x8, addend: 0x0, symName: __ZNKSt3__19basic_iosIcNS_11char_traitsIcEEEcvbB8ue170006Ev, symObjAddr: 0xA94, symBinAddr: 0x10000F018, symSize: 0x2C }
  - { offsetInCU: 0x916B, offset: 0x232A9, size: 0x8, addend: 0x0, symName: __ZNSt3__112basic_stringIcNS_11char_traitsIcEENS_9allocatorIcEEEpLB8ue170006ERKS5_, symObjAddr: 0xAC0, symBinAddr: 0x10000F044, symSize: 0x2C }
  - { offsetInCU: 0x919E, offset: 0x232DC, size: 0x8, addend: 0x0, symName: __ZNSt3__114basic_ifstreamIcNS_11char_traitsIcEEE5closeEv, symObjAddr: 0xAEC, symBinAddr: 0x10000F070, symSize: 0x58 }
  - { offsetInCU: 0x91C5, offset: 0x23303, size: 0x8, addend: 0x0, symName: __ZNKSt3__112basic_stringIcNS_11char_traitsIcEENS_9allocatorIcEEE5c_strB8ue170006Ev, symObjAddr: 0xB44, symBinAddr: 0x10000F0C8, symSize: 0x24 }
  - { offsetInCU: 0x91E9, offset: 0x23327, size: 0x8, addend: 0x0, symName: __ZNSt3__16vectorIcNS_9allocatorIcEEEC1Em, symObjAddr: 0xB68, symBinAddr: 0x10000F0EC, symSize: 0x34 }
  - { offsetInCU: 0x9223, offset: 0x23361, size: 0x8, addend: 0x0, symName: __ZNSt3__16vectorIcNS_9allocatorIcEEEixB8ue170006Em, symObjAddr: 0xB9C, symBinAddr: 0x10000F120, symSize: 0x24 }
  - { offsetInCU: 0x9258, offset: 0x23396, size: 0x8, addend: 0x0, symName: __ZNSt3__16vectorIcNS_9allocatorIcEEED1B8ue170006Ev, symObjAddr: 0xBC0, symBinAddr: 0x10000F144, symSize: 0x2C }
  - { offsetInCU: 0x9285, offset: 0x233C3, size: 0x8, addend: 0x0, symName: __ZNSt3__114basic_ifstreamIcNS_11char_traitsIcEEED1Ev, symObjAddr: 0xBEC, symBinAddr: 0x10000F170, symSize: 0x40 }
  - { offsetInCU: 0x92B1, offset: 0x233EF, size: 0x8, addend: 0x0, symName: __ZNSt3__114basic_ifstreamIcNS_11char_traitsIcEEED2Ev, symObjAddr: 0xC2C, symBinAddr: 0x10000F1B0, symSize: 0x64 }
  - { offsetInCU: 0x92E9, offset: 0x23427, size: 0x8, addend: 0x0, symName: __ZTv0_n24_NSt3__114basic_ifstreamIcNS_11char_traitsIcEEED1Ev, symObjAddr: 0xC90, symBinAddr: 0x10000F214, symSize: 0x28 }
  - { offsetInCU: 0x9305, offset: 0x23443, size: 0x8, addend: 0x0, symName: __ZNSt3__112basic_stringIcNS_11char_traitsIcEENS_9allocatorIcEEE6appendB8ue170006ERKS5_, symObjAddr: 0xE7C, symBinAddr: 0x10000F23C, symSize: 0x4C }
  - { offsetInCU: 0x9338, offset: 0x23476, size: 0x8, addend: 0x0, symName: __ZNKSt3__112basic_stringIcNS_11char_traitsIcEENS_9allocatorIcEEE4dataB8ue170006Ev, symObjAddr: 0xEC8, symBinAddr: 0x10000F288, symSize: 0x28 }
  - { offsetInCU: 0x935C, offset: 0x2349A, size: 0x8, addend: 0x0, symName: __ZNKSt3__112basic_stringIcNS_11char_traitsIcEENS_9allocatorIcEEE4sizeB8ue170006Ev, symObjAddr: 0xEF0, symBinAddr: 0x10000F2B0, symSize: 0x54 }
  - { offsetInCU: 0x9380, offset: 0x234BE, size: 0x8, addend: 0x0, symName: __ZNKSt3__112basic_stringIcNS_11char_traitsIcEENS_9allocatorIcEEE13__get_pointerB8ue170006Ev, symObjAddr: 0xF58, symBinAddr: 0x10000F318, symSize: 0x54 }
  - { offsetInCU: 0x93A4, offset: 0x234E2, size: 0x8, addend: 0x0, symName: __ZNKSt3__112basic_stringIcNS_11char_traitsIcEENS_9allocatorIcEEE9__is_longB8ue170006Ev, symObjAddr: 0xFAC, symBinAddr: 0x10000F36C, symSize: 0x38 }
  - { offsetInCU: 0x93C8, offset: 0x23506, size: 0x8, addend: 0x0, symName: __ZNKSt3__112basic_stringIcNS_11char_traitsIcEENS_9allocatorIcEEE18__get_long_pointerB8ue170006Ev, symObjAddr: 0xFE4, symBinAddr: 0x10000F3A4, symSize: 0x28 }
  - { offsetInCU: 0x93EC, offset: 0x2352A, size: 0x8, addend: 0x0, symName: __ZNKSt3__112basic_stringIcNS_11char_traitsIcEENS_9allocatorIcEEE19__get_short_pointerB8ue170006Ev, symObjAddr: 0x100C, symBinAddr: 0x10000F3CC, symSize: 0x28 }
  - { offsetInCU: 0x9410, offset: 0x2354E, size: 0x8, addend: 0x0, symName: __ZNKSt3__117__compressed_pairINS_12basic_stringIcNS_11char_traitsIcEENS_9allocatorIcEEE5__repES5_E5firstB8ue170006Ev, symObjAddr: 0x1034, symBinAddr: 0x10000F3F4, symSize: 0x24 }
  - { offsetInCU: 0x9434, offset: 0x23572, size: 0x8, addend: 0x0, symName: __ZNKSt3__122__compressed_pair_elemINS_12basic_stringIcNS_11char_traitsIcEENS_9allocatorIcEEE5__repELi0ELb0EE5__getB8ue170006Ev, symObjAddr: 0x1058, symBinAddr: 0x10000F418, symSize: 0x14 }
  - { offsetInCU: 0x9458, offset: 0x23596, size: 0x8, addend: 0x0, symName: __ZNSt3__114pointer_traitsIPKcE10pointer_toB8ue170006ERS1_, symObjAddr: 0x106C, symBinAddr: 0x10000F42C, symSize: 0x14 }
  - { offsetInCU: 0x947A, offset: 0x235B8, size: 0x8, addend: 0x0, symName: __ZNKSt3__112basic_stringIcNS_11char_traitsIcEENS_9allocatorIcEEE15__get_long_sizeB8ue170006Ev, symObjAddr: 0x1080, symBinAddr: 0x10000F440, symSize: 0x28 }
  - { offsetInCU: 0x949E, offset: 0x235DC, size: 0x8, addend: 0x0, symName: __ZNKSt3__112basic_stringIcNS_11char_traitsIcEENS_9allocatorIcEEE16__get_short_sizeB8ue170006Ev, symObjAddr: 0x10A8, symBinAddr: 0x10000F468, symSize: 0x34 }
  - { offsetInCU: 0x94C2, offset: 0x23600, size: 0x8, addend: 0x0, symName: __ZNSt3__19basic_iosIcNS_11char_traitsIcEEEC2B8ue170006Ev, symObjAddr: 0x10DC, symBinAddr: 0x10000F49C, symSize: 0x44 }
  - { offsetInCU: 0x94EA, offset: 0x23628, size: 0x8, addend: 0x0, symName: __ZNSt3__113basic_istreamIcNS_11char_traitsIcEEEC2B8ue170006EPNS_15basic_streambufIcS2_EE, symObjAddr: 0x1120, symBinAddr: 0x10000F4E0, symSize: 0x64 }
  - { offsetInCU: 0x952C, offset: 0x2366A, size: 0x8, addend: 0x0, symName: __ZNSt3__19basic_iosIcNS_11char_traitsIcEEE8setstateB8ue170006Ej, symObjAddr: 0x1184, symBinAddr: 0x10000F544, symSize: 0x2C }
  - { offsetInCU: 0x955F, offset: 0x2369D, size: 0x8, addend: 0x0, symName: __ZNSt3__18ios_baseC2B8ue170006Ev, symObjAddr: 0x11B0, symBinAddr: 0x10000F570, symSize: 0x24 }
  - { offsetInCU: 0x9587, offset: 0x236C5, size: 0x8, addend: 0x0, symName: __ZNSt3__19basic_iosIcNS_11char_traitsIcEEE4initB8ue170006EPNS_15basic_streambufIcS2_EE, symObjAddr: 0x11D4, symBinAddr: 0x10000F594, symSize: 0x44 }
  - { offsetInCU: 0x95BD, offset: 0x236FB, size: 0x8, addend: 0x0, symName: __ZNSt3__111char_traitsIcE3eofB8ue170006Ev, symObjAddr: 0x1218, symBinAddr: 0x10000F5D8, symSize: 0x8 }
  - { offsetInCU: 0x95D0, offset: 0x2370E, size: 0x8, addend: 0x0, symName: __ZNSt3__18ios_base8setstateB8ue170006Ej, symObjAddr: 0x1220, symBinAddr: 0x10000F5E0, symSize: 0x34 }
  - { offsetInCU: 0x9606, offset: 0x23744, size: 0x8, addend: 0x0, symName: __ZNKSt3__113basic_filebufIcNS_11char_traitsIcEEE7is_openEv, symObjAddr: 0x1254, symBinAddr: 0x10000F614, symSize: 0x24 }
  - { offsetInCU: 0x962C, offset: 0x2376A, size: 0x8, addend: 0x0, symName: __ZNSt3__112basic_stringIcNS_11char_traitsIcEENS_9allocatorIcEEEC2B8ue170006ILi0EEEPKc, symObjAddr: 0x1278, symBinAddr: 0x10000F638, symSize: 0x58 }
  - { offsetInCU: 0x966A, offset: 0x237A8, size: 0x8, addend: 0x0, symName: __ZNSt3__111char_traitsIcE6lengthB8ue170006EPKc, symObjAddr: 0x12D0, symBinAddr: 0x10000F690, symSize: 0x34 }
  - { offsetInCU: 0x968C, offset: 0x237CA, size: 0x8, addend: 0x0, symName: __ZNKSt3__19basic_iosIcNS_11char_traitsIcEEE5widenB8ue170006Ec, symObjAddr: 0x1560, symBinAddr: 0x10000F920, symSize: 0x84 }
  - { offsetInCU: 0x96E0, offset: 0x2381E, size: 0x8, addend: 0x0, symName: __ZNKSt3__113basic_istreamIcNS_11char_traitsIcEEE6sentrycvbB8ue170006Ev, symObjAddr: 0x15E4, symBinAddr: 0x10000F9A4, symSize: 0x1C }
  - { offsetInCU: 0x9704, offset: 0x23842, size: 0x8, addend: 0x0, symName: __ZNSt3__112basic_stringIcNS_11char_traitsIcEENS_9allocatorIcEEE5clearB8ue170006Ev, symObjAddr: 0x1600, symBinAddr: 0x10000F9C0, symSize: 0x78 }
  - { offsetInCU: 0x972B, offset: 0x23869, size: 0x8, addend: 0x0, symName: __ZNKSt3__19basic_iosIcNS_11char_traitsIcEEE5rdbufB8ue170006Ev, symObjAddr: 0x1678, symBinAddr: 0x10000FA38, symSize: 0x24 }
  - { offsetInCU: 0x9752, offset: 0x23890, size: 0x8, addend: 0x0, symName: __ZNSt3__115basic_streambufIcNS_11char_traitsIcEEE6sbumpcB8ue170006Ev, symObjAddr: 0x169C, symBinAddr: 0x10000FA5C, symSize: 0x78 }
  - { offsetInCU: 0x9776, offset: 0x238B4, size: 0x8, addend: 0x0, symName: __ZNSt3__111char_traitsIcE11eq_int_typeB8ue170006Eii, symObjAddr: 0x1714, symBinAddr: 0x10000FAD4, symSize: 0x28 }
  - { offsetInCU: 0x97A8, offset: 0x238E6, size: 0x8, addend: 0x0, symName: __ZNSt3__111char_traitsIcE12to_char_typeB8ue170006Ei, symObjAddr: 0x173C, symBinAddr: 0x10000FAFC, symSize: 0x18 }
  - { offsetInCU: 0x97CA, offset: 0x23908, size: 0x8, addend: 0x0, symName: __ZNSt3__111char_traitsIcE2eqEcc, symObjAddr: 0x1754, symBinAddr: 0x10000FB14, symSize: 0x28 }
  - { offsetInCU: 0x97FA, offset: 0x23938, size: 0x8, addend: 0x0, symName: __ZNKSt3__112basic_stringIcNS_11char_traitsIcEENS_9allocatorIcEEE8max_sizeB8ue170006Ev, symObjAddr: 0x177C, symBinAddr: 0x10000FB3C, symSize: 0xAC }
  - { offsetInCU: 0x984B, offset: 0x23989, size: 0x8, addend: 0x0, symName: __ZNSt3__18ios_base18__setstate_nothrowB8ue170006Ej, symObjAddr: 0x1828, symBinAddr: 0x10000FBE8, symSize: 0x64 }
  - { offsetInCU: 0x987E, offset: 0x239BC, size: 0x8, addend: 0x0, symName: __ZNKSt3__19basic_iosIcNS_11char_traitsIcEEE10exceptionsB8ue170006Ev, symObjAddr: 0x188C, symBinAddr: 0x10000FC4C, symSize: 0x24 }
  - { offsetInCU: 0x98A2, offset: 0x239E0, size: 0x8, addend: 0x0, symName: __ZNSt3__111char_traitsIcE6assignB8ue170006ERcRKc, symObjAddr: 0x18B0, symBinAddr: 0x10000FC70, symSize: 0x24 }
  - { offsetInCU: 0x98D2, offset: 0x23A10, size: 0x8, addend: 0x0, symName: __ZNSt3__112basic_stringIcNS_11char_traitsIcEENS_9allocatorIcEEE18__get_long_pointerB8ue170006Ev, symObjAddr: 0x18D4, symBinAddr: 0x10000FC94, symSize: 0x28 }
  - { offsetInCU: 0x98F6, offset: 0x23A34, size: 0x8, addend: 0x0, symName: __ZNSt3__112basic_stringIcNS_11char_traitsIcEENS_9allocatorIcEEE15__set_long_sizeB8ue170006Em, symObjAddr: 0x18FC, symBinAddr: 0x10000FCBC, symSize: 0x38 }
  - { offsetInCU: 0x9929, offset: 0x23A67, size: 0x8, addend: 0x0, symName: __ZNSt3__112basic_stringIcNS_11char_traitsIcEENS_9allocatorIcEEE19__get_short_pointerB8ue170006Ev, symObjAddr: 0x1934, symBinAddr: 0x10000FCF4, symSize: 0x28 }
  - { offsetInCU: 0x994D, offset: 0x23A8B, size: 0x8, addend: 0x0, symName: __ZNSt3__112basic_stringIcNS_11char_traitsIcEENS_9allocatorIcEEE16__set_short_sizeB8ue170006Em, symObjAddr: 0x195C, symBinAddr: 0x10000FD1C, symSize: 0x78 }
  - { offsetInCU: 0x9980, offset: 0x23ABE, size: 0x8, addend: 0x0, symName: __ZNSt3__114pointer_traitsIPcE10pointer_toB8ue170006ERc, symObjAddr: 0x19D4, symBinAddr: 0x10000FD94, symSize: 0x14 }
  - { offsetInCU: 0x99A2, offset: 0x23AE0, size: 0x8, addend: 0x0, symName: __ZNKSt3__18ios_base5rdbufB8ue170006Ev, symObjAddr: 0x19E8, symBinAddr: 0x10000FDA8, symSize: 0x18 }
  - { offsetInCU: 0x99C6, offset: 0x23B04, size: 0x8, addend: 0x0, symName: __ZNSt3__111char_traitsIcE11to_int_typeB8ue170006Ec, symObjAddr: 0x1A00, symBinAddr: 0x10000FDC0, symSize: 0x14 }
  - { offsetInCU: 0x99F3, offset: 0x23B31, size: 0x8, addend: 0x0, symName: __ZNSt3__116allocator_traitsINS_9allocatorIcEEE8max_sizeB8ue170006IS2_vEEmRKS2_, symObjAddr: 0x1A14, symBinAddr: 0x10000FDD4, symSize: 0x24 }
  - { offsetInCU: 0x9A20, offset: 0x23B5E, size: 0x8, addend: 0x0, symName: __ZNKSt3__112basic_stringIcNS_11char_traitsIcEENS_9allocatorIcEEE7__allocB8ue170006Ev, symObjAddr: 0x1A38, symBinAddr: 0x10000FDF8, symSize: 0x24 }
  - { offsetInCU: 0x9A44, offset: 0x23B82, size: 0x8, addend: 0x0, symName: __ZNSt3__114numeric_limitsImE3maxB8ue170006Ev, symObjAddr: 0x1A5C, symBinAddr: 0x10000FE1C, symSize: 0x14 }
  - { offsetInCU: 0x9A57, offset: 0x23B95, size: 0x8, addend: 0x0, symName: __ZNKSt3__19allocatorIcE8max_sizeB8ue170006Ev, symObjAddr: 0x1A70, symBinAddr: 0x10000FE30, symSize: 0x14 }
  - { offsetInCU: 0x9A7B, offset: 0x23BB9, size: 0x8, addend: 0x0, symName: __ZNKSt3__117__compressed_pairINS_12basic_stringIcNS_11char_traitsIcEENS_9allocatorIcEEE5__repES5_E6secondB8ue170006Ev, symObjAddr: 0x1A84, symBinAddr: 0x10000FE44, symSize: 0x24 }
  - { offsetInCU: 0x9A9F, offset: 0x23BDD, size: 0x8, addend: 0x0, symName: __ZNKSt3__122__compressed_pair_elemINS_9allocatorIcEELi1ELb1EE5__getB8ue170006Ev, symObjAddr: 0x1AA8, symBinAddr: 0x10000FE68, symSize: 0x14 }
  - { offsetInCU: 0x9AC3, offset: 0x23C01, size: 0x8, addend: 0x0, symName: __ZNSt3__123__libcpp_numeric_limitsImLb1EE3maxB8ue170006Ev, symObjAddr: 0x1ABC, symBinAddr: 0x10000FE7C, symSize: 0x8 }
  - { offsetInCU: 0x9AD6, offset: 0x23C14, size: 0x8, addend: 0x0, symName: __ZNKSt3__18ios_base10exceptionsB8ue170006Ev, symObjAddr: 0x1AC4, symBinAddr: 0x10000FE84, symSize: 0x18 }
  - { offsetInCU: 0x9B33, offset: 0x23C71, size: 0x8, addend: 0x0, symName: __ZNKSt3__15ctypeIcE5widenB8ue170006Ec, symObjAddr: 0x1B08, symBinAddr: 0x10000FEC8, symSize: 0x38 }
  - { offsetInCU: 0x9B66, offset: 0x23CA4, size: 0x8, addend: 0x0, symName: __ZNKSt3__19basic_iosIcNS_11char_traitsIcEEE4failB8ue170006Ev, symObjAddr: 0x1B40, symBinAddr: 0x10000FF00, symSize: 0x28 }
  - { offsetInCU: 0x9B8A, offset: 0x23CC8, size: 0x8, addend: 0x0, symName: __ZNKSt3__18ios_base4failB8ue170006Ev, symObjAddr: 0x1B68, symBinAddr: 0x10000FF28, symSize: 0x28 }
  - { offsetInCU: 0x9BB0, offset: 0x23CEE, size: 0x8, addend: 0x0, symName: __ZNSt3__16vectorIcNS_9allocatorIcEEEC2Em, symObjAddr: 0x1B90, symBinAddr: 0x10000FF50, symSize: 0xD4 }
  - { offsetInCU: 0x9C04, offset: 0x23D42, size: 0x8, addend: 0x0, symName: __ZNSt3__117__compressed_pairIPcNS_9allocatorIcEEEC1B8ue170006IDnNS_18__default_init_tagEEEOT_OT0_, symObjAddr: 0x1C64, symBinAddr: 0x100010024, symSize: 0x3C }
  - { offsetInCU: 0x9C5A, offset: 0x23D98, size: 0x8, addend: 0x0, symName: __ZNSt3__16vectorIcNS_9allocatorIcEEE16__destroy_vectorC1B8ue170006ERS3_, symObjAddr: 0x1CE0, symBinAddr: 0x1000100A0, symSize: 0x34 }
  - { offsetInCU: 0x9C91, offset: 0x23DCF, size: 0x8, addend: 0x0, symName: __ZNSt3__16vectorIcNS_9allocatorIcEEE11__vallocateB8ue170006Em, symObjAddr: 0x1D14, symBinAddr: 0x1000100D4, symSize: 0xAC }
  - { offsetInCU: 0x9CD3, offset: 0x23E11, size: 0x8, addend: 0x0, symName: __ZNSt3__16vectorIcNS_9allocatorIcEEE18__construct_at_endEm, symObjAddr: 0x1DC0, symBinAddr: 0x100010180, symSize: 0xC8 }
  - { offsetInCU: 0x9D45, offset: 0x23E83, size: 0x8, addend: 0x0, symName: __ZNSt3__128__exception_guard_exceptionsINS_6vectorIcNS_9allocatorIcEEE16__destroy_vectorEE10__completeB8ue170006Ev, symObjAddr: 0x1E88, symBinAddr: 0x100010248, symSize: 0x1C }
  - { offsetInCU: 0x9D69, offset: 0x23EA7, size: 0x8, addend: 0x0, symName: __ZNSt3__128__exception_guard_exceptionsINS_6vectorIcNS_9allocatorIcEEE16__destroy_vectorEED1B8ue170006Ev, symObjAddr: 0x1EA4, symBinAddr: 0x100010264, symSize: 0x2C }
  - { offsetInCU: 0x9D91, offset: 0x23ECF, size: 0x8, addend: 0x0, symName: __ZNSt3__117__compressed_pairIPcNS_9allocatorIcEEEC2B8ue170006IDnNS_18__default_init_tagEEEOT_OT0_, symObjAddr: 0x1ED0, symBinAddr: 0x100010290, symSize: 0x40 }
  - { offsetInCU: 0x9DE7, offset: 0x23F25, size: 0x8, addend: 0x0, symName: __ZNSt3__122__compressed_pair_elemIPcLi0ELb0EEC2B8ue170006IDnvEEOT_, symObjAddr: 0x1F10, symBinAddr: 0x1000102D0, symSize: 0x1C }
  - { offsetInCU: 0x9E27, offset: 0x23F65, size: 0x8, addend: 0x0, symName: __ZNSt3__128__exception_guard_exceptionsINS_6vectorIcNS_9allocatorIcEEE16__destroy_vectorEEC1B8ue170006ES5_, symObjAddr: 0x1F2C, symBinAddr: 0x1000102EC, symSize: 0x34 }
  - { offsetInCU: 0x9E5D, offset: 0x23F9B, size: 0x8, addend: 0x0, symName: __ZNSt3__128__exception_guard_exceptionsINS_6vectorIcNS_9allocatorIcEEE16__destroy_vectorEEC2B8ue170006ES5_, symObjAddr: 0x1F60, symBinAddr: 0x100010320, symSize: 0x24 }
  - { offsetInCU: 0x9E93, offset: 0x23FD1, size: 0x8, addend: 0x0, symName: __ZNSt3__16vectorIcNS_9allocatorIcEEE16__destroy_vectorC2B8ue170006ERS3_, symObjAddr: 0x1F84, symBinAddr: 0x100010344, symSize: 0x20 }
  - { offsetInCU: 0x9ECA, offset: 0x24008, size: 0x8, addend: 0x0, symName: __ZNKSt3__16vectorIcNS_9allocatorIcEEE8max_sizeEv, symObjAddr: 0x1FA4, symBinAddr: 0x100010364, symSize: 0x60 }
  - { offsetInCU: 0x9EF1, offset: 0x2402F, size: 0x8, addend: 0x0, symName: __ZNKSt3__16vectorIcNS_9allocatorIcEEE20__throw_length_errorB8ue170006Ev, symObjAddr: 0x2004, symBinAddr: 0x1000103C4, symSize: 0x1C }
  - { offsetInCU: 0x9F15, offset: 0x24053, size: 0x8, addend: 0x0, symName: __ZNSt3__16vectorIcNS_9allocatorIcEEE7__allocB8ue170006Ev, symObjAddr: 0x2060, symBinAddr: 0x100010420, symSize: 0x28 }
  - { offsetInCU: 0x9F39, offset: 0x24077, size: 0x8, addend: 0x0, symName: __ZNSt3__16vectorIcNS_9allocatorIcEEE9__end_capB8ue170006Ev, symObjAddr: 0x2088, symBinAddr: 0x100010448, symSize: 0x28 }
  - { offsetInCU: 0x9F5D, offset: 0x2409B, size: 0x8, addend: 0x0, symName: __ZNKSt3__16vectorIcNS_9allocatorIcEEE14__annotate_newB8ue170006Em, symObjAddr: 0x20B0, symBinAddr: 0x100010470, symSize: 0xAC }
  - { offsetInCU: 0x9F90, offset: 0x240CE, size: 0x8, addend: 0x0, symName: __ZNKSt3__16vectorIcNS_9allocatorIcEEE7__allocB8ue170006Ev, symObjAddr: 0x2188, symBinAddr: 0x10001051C, symSize: 0x28 }
  - { offsetInCU: 0x9FB4, offset: 0x240F2, size: 0x8, addend: 0x0, symName: __ZNKSt3__117__compressed_pairIPcNS_9allocatorIcEEE6secondB8ue170006Ev, symObjAddr: 0x224C, symBinAddr: 0x100010544, symSize: 0x24 }
  - { offsetInCU: 0x9FD8, offset: 0x24116, size: 0x8, addend: 0x0, symName: __ZNSt3__19allocatorIcE8allocateB8ue170006Em, symObjAddr: 0x235C, symBinAddr: 0x100010568, symSize: 0x58 }
  - { offsetInCU: 0xA00A, offset: 0x24148, size: 0x8, addend: 0x0, symName: __ZNSt3__117__compressed_pairIPcNS_9allocatorIcEEE6secondB8ue170006Ev, symObjAddr: 0x2434, symBinAddr: 0x1000105C0, symSize: 0x24 }
  - { offsetInCU: 0xA02E, offset: 0x2416C, size: 0x8, addend: 0x0, symName: __ZNSt3__122__compressed_pair_elemINS_9allocatorIcEELi1ELb1EE5__getB8ue170006Ev, symObjAddr: 0x2458, symBinAddr: 0x1000105E4, symSize: 0x14 }
  - { offsetInCU: 0xA052, offset: 0x24190, size: 0x8, addend: 0x0, symName: __ZNSt3__117__compressed_pairIPcNS_9allocatorIcEEE5firstB8ue170006Ev, symObjAddr: 0x246C, symBinAddr: 0x1000105F8, symSize: 0x24 }
  - { offsetInCU: 0xA076, offset: 0x241B4, size: 0x8, addend: 0x0, symName: __ZNSt3__122__compressed_pair_elemIPcLi0ELb0EE5__getB8ue170006Ev, symObjAddr: 0x2490, symBinAddr: 0x10001061C, symSize: 0x14 }
  - { offsetInCU: 0xA09A, offset: 0x241D8, size: 0x8, addend: 0x0, symName: __ZNKSt3__16vectorIcNS_9allocatorIcEEE31__annotate_contiguous_containerB8ue170006EPKvS5_S5_S5_, symObjAddr: 0x24A4, symBinAddr: 0x100010630, symSize: 0x20 }
  - { offsetInCU: 0xA0EA, offset: 0x24228, size: 0x8, addend: 0x0, symName: __ZNKSt3__16vectorIcNS_9allocatorIcEEE4dataB8ue170006Ev, symObjAddr: 0x24C4, symBinAddr: 0x100010650, symSize: 0x28 }
  - { offsetInCU: 0xA10E, offset: 0x2424C, size: 0x8, addend: 0x0, symName: __ZNKSt3__16vectorIcNS_9allocatorIcEEE8capacityB8ue170006Ev, symObjAddr: 0x24EC, symBinAddr: 0x100010678, symSize: 0x38 }
  - { offsetInCU: 0xA132, offset: 0x24270, size: 0x8, addend: 0x0, symName: __ZNKSt3__16vectorIcNS_9allocatorIcEEE9__end_capB8ue170006Ev, symObjAddr: 0x2538, symBinAddr: 0x1000106C4, symSize: 0x28 }
  - { offsetInCU: 0xA156, offset: 0x24294, size: 0x8, addend: 0x0, symName: __ZNKSt3__117__compressed_pairIPcNS_9allocatorIcEEE5firstB8ue170006Ev, symObjAddr: 0x2560, symBinAddr: 0x1000106EC, symSize: 0x24 }
  - { offsetInCU: 0xA17A, offset: 0x242B8, size: 0x8, addend: 0x0, symName: __ZNKSt3__122__compressed_pair_elemIPcLi0ELb0EE5__getB8ue170006Ev, symObjAddr: 0x2584, symBinAddr: 0x100010710, symSize: 0x14 }
  - { offsetInCU: 0xA1B7, offset: 0x242F5, size: 0x8, addend: 0x0, symName: __ZNSt3__16vectorIcNS_9allocatorIcEEE21_ConstructTransactionC1B8ue170006ERS3_m, symObjAddr: 0x2598, symBinAddr: 0x100010724, symSize: 0x3C }
  - { offsetInCU: 0xA1FD, offset: 0x2433B, size: 0x8, addend: 0x0, symName: __ZNSt3__116allocator_traitsINS_9allocatorIcEEE9constructB8ue170006IcJEvEEvRS2_PT_DpOT0_, symObjAddr: 0x25D4, symBinAddr: 0x100010760, symSize: 0x2C }
  - { offsetInCU: 0xA23E, offset: 0x2437C, size: 0x8, addend: 0x0, symName: __ZNSt3__16vectorIcNS_9allocatorIcEEE21_ConstructTransactionD1B8ue170006Ev, symObjAddr: 0x2600, symBinAddr: 0x10001078C, symSize: 0x2C }
  - { offsetInCU: 0xA266, offset: 0x243A4, size: 0x8, addend: 0x0, symName: __ZNSt3__16vectorIcNS_9allocatorIcEEE21_ConstructTransactionC2B8ue170006ERS3_m, symObjAddr: 0x262C, symBinAddr: 0x1000107B8, symSize: 0x44 }
  - { offsetInCU: 0xA2AC, offset: 0x243EA, size: 0x8, addend: 0x0, symName: __ZNSt3__19allocatorIcE9constructB8ue170006IcJEEEvPT_DpOT0_, symObjAddr: 0x2670, symBinAddr: 0x1000107FC, symSize: 0x1C }
  - { offsetInCU: 0xA2EC, offset: 0x2442A, size: 0x8, addend: 0x0, symName: __ZNSt3__16vectorIcNS_9allocatorIcEEE21_ConstructTransactionD2B8ue170006Ev, symObjAddr: 0x268C, symBinAddr: 0x100010818, symSize: 0x20 }
  - { offsetInCU: 0xA314, offset: 0x24452, size: 0x8, addend: 0x0, symName: __ZNSt3__128__exception_guard_exceptionsINS_6vectorIcNS_9allocatorIcEEE16__destroy_vectorEED2B8ue170006Ev, symObjAddr: 0x26AC, symBinAddr: 0x100010838, symSize: 0x50 }
  - { offsetInCU: 0xA33C, offset: 0x2447A, size: 0x8, addend: 0x0, symName: __ZNSt3__16vectorIcNS_9allocatorIcEEE16__destroy_vectorclB8ue170006Ev, symObjAddr: 0x26FC, symBinAddr: 0x100010888, symSize: 0x90 }
  - { offsetInCU: 0xA360, offset: 0x2449E, size: 0x8, addend: 0x0, symName: __ZNSt3__16vectorIcNS_9allocatorIcEEE7__clearB8ue170006Ev, symObjAddr: 0x278C, symBinAddr: 0x100010918, symSize: 0x28 }
  - { offsetInCU: 0xA384, offset: 0x244C2, size: 0x8, addend: 0x0, symName: __ZNKSt3__16vectorIcNS_9allocatorIcEEE17__annotate_deleteB8ue170006Ev, symObjAddr: 0x27B4, symBinAddr: 0x100010940, symSize: 0xB8 }
  - { offsetInCU: 0xA3A8, offset: 0x244E6, size: 0x8, addend: 0x0, symName: __ZNSt3__116allocator_traitsINS_9allocatorIcEEE10deallocateB8ue170006ERS2_Pcm, symObjAddr: 0x286C, symBinAddr: 0x1000109F8, symSize: 0x34 }
  - { offsetInCU: 0xA3E9, offset: 0x24527, size: 0x8, addend: 0x0, symName: __ZNSt3__16vectorIcNS_9allocatorIcEEE22__base_destruct_at_endB8ue170006EPc, symObjAddr: 0x28A0, symBinAddr: 0x100010A2C, symSize: 0x8C }
  - { offsetInCU: 0xA42B, offset: 0x24569, size: 0x8, addend: 0x0, symName: __ZNSt3__116allocator_traitsINS_9allocatorIcEEE7destroyB8ue170006IcvEEvRS2_PT_, symObjAddr: 0x292C, symBinAddr: 0x100010AB8, symSize: 0x2C }
  - { offsetInCU: 0xA467, offset: 0x245A5, size: 0x8, addend: 0x0, symName: __ZNSt3__19allocatorIcE7destroyB8ue170006EPc, symObjAddr: 0x2958, symBinAddr: 0x100010AE4, symSize: 0x14 }
  - { offsetInCU: 0xA499, offset: 0x245D7, size: 0x8, addend: 0x0, symName: __ZNKSt3__16vectorIcNS_9allocatorIcEEE4sizeB8ue170006Ev, symObjAddr: 0x296C, symBinAddr: 0x100010AF8, symSize: 0x20 }
  - { offsetInCU: 0xA4BD, offset: 0x245FB, size: 0x8, addend: 0x0, symName: __ZNSt3__19allocatorIcE10deallocateB8ue170006EPcm, symObjAddr: 0x298C, symBinAddr: 0x100010B18, symSize: 0x40 }
  - { offsetInCU: 0xA4FD, offset: 0x2463B, size: 0x8, addend: 0x0, symName: __ZNSt3__16vectorIcNS_9allocatorIcEEED2B8ue170006Ev, symObjAddr: 0x2A48, symBinAddr: 0x100010B58, symSize: 0x40 }
  - { offsetInCU: 0x63, offset: 0x24753, size: 0x8, addend: 0x0, symName: __ZN3glmmiIfLNS_9qualifierE0EEENS_3vecILi2ET_XT0_EEERKS4_S6_, symObjAddr: 0x54C, symBinAddr: 0x100010FFC, symSize: 0x58 }
  - { offsetInCU: 0x3E43, offset: 0x28533, size: 0x8, addend: 0x0, symName: __Z19computeTangentBasisRNSt3__16vectorIN3glm3vecILi3EfLNS1_9qualifierE0EEENS_9allocatorIS4_EEEERNS0_INS2_ILi2EfLS3_0EEENS5_IS9_EEEES8_S8_S8_, symObjAddr: 0x0, symBinAddr: 0x100010B98, symSize: 0x464 }
  - { offsetInCU: 0x4064, offset: 0x28754, size: 0x8, addend: 0x0, symName: __ZN3glm3vecILi2EfLNS_9qualifierE0EEC1Eff, symObjAddr: 0x79C, symBinAddr: 0x100011054, symSize: 0x3C }
  - { offsetInCU: 0x40AA, offset: 0x2879A, size: 0x8, addend: 0x0, symName: __ZN3glm3vecILi2EfLNS_9qualifierE0EEC2Eff, symObjAddr: 0x7D8, symBinAddr: 0x100011090, symSize: 0x2C }
  - { offsetInCU: 0x3F, offset: 0x28842, size: 0x8, addend: 0x0, symName: _Text2DTextureID, symObjAddr: 0x217E4, symBinAddr: 0x10001C0A8, symSize: 0x0 }
  - { offsetInCU: 0x5B, offset: 0x2885E, size: 0x8, addend: 0x0, symName: _Text2DVertexBufferID, symObjAddr: 0x217E8, symBinAddr: 0x10001C0AC, symSize: 0x0 }
  - { offsetInCU: 0x70, offset: 0x28873, size: 0x8, addend: 0x0, symName: _Text2DUVBufferID, symObjAddr: 0x217EC, symBinAddr: 0x10001C0B0, symSize: 0x0 }
  - { offsetInCU: 0x85, offset: 0x28888, size: 0x8, addend: 0x0, symName: _Text2DShaderID, symObjAddr: 0x217F0, symBinAddr: 0x10001C0B4, symSize: 0x0 }
  - { offsetInCU: 0x9A, offset: 0x2889D, size: 0x8, addend: 0x0, symName: _vertexPosition_screenspaceID, symObjAddr: 0x217F4, symBinAddr: 0x10001C0B8, symSize: 0x0 }
  - { offsetInCU: 0xAF, offset: 0x288B2, size: 0x8, addend: 0x0, symName: _vertexUVID, symObjAddr: 0x217F8, symBinAddr: 0x10001C0BC, symSize: 0x0 }
  - { offsetInCU: 0xC4, offset: 0x288C7, size: 0x8, addend: 0x0, symName: _Text2DUniformID, symObjAddr: 0x217FC, symBinAddr: 0x10001C0C0, symSize: 0x0 }
  - { offsetInCU: 0x36D8, offset: 0x2BEDB, size: 0x8, addend: 0x0, symName: __Z10initText2DPKc, symObjAddr: 0x0, symBinAddr: 0x1000110BC, symSize: 0xFC }
  - { offsetInCU: 0x3700, offset: 0x2BF03, size: 0x8, addend: 0x0, symName: __Z11printText2DPKciii, symObjAddr: 0xFC, symBinAddr: 0x1000111B8, symSize: 0x580 }
  - { offsetInCU: 0x3845, offset: 0x2C048, size: 0x8, addend: 0x0, symName: __ZN3glm3vecILi2EfLNS_9qualifierE0EEC1IjiEET_T0_, symObjAddr: 0x6A8, symBinAddr: 0x100011738, symSize: 0x3C }
  - { offsetInCU: 0x389D, offset: 0x2C0A0, size: 0x8, addend: 0x0, symName: __Z13cleanupText2Dv, symObjAddr: 0x804, symBinAddr: 0x100011774, symSize: 0x7C }
  - { offsetInCU: 0x38B7, offset: 0x2C0BA, size: 0x8, addend: 0x0, symName: __ZN3glm3vecILi2EfLNS_9qualifierE0EEC2IjiEET_T0_, symObjAddr: 0xF28, symBinAddr: 0x1000117F0, symSize: 0x34 }
  - { offsetInCU: 0x26, offset: 0x2C151, size: 0x8, addend: 0x0, symName: __Z14loadBMP_customPKc, symObjAddr: 0x0, symBinAddr: 0x100011824, symSize: 0x304 }
  - { offsetInCU: 0x185, offset: 0x2C2B0, size: 0x8, addend: 0x0, symName: __Z14loadBMP_customPKc, symObjAddr: 0x0, symBinAddr: 0x100011824, symSize: 0x304 }
  - { offsetInCU: 0x226, offset: 0x2C351, size: 0x8, addend: 0x0, symName: __Z7loadDDSPKc, symObjAddr: 0x304, symBinAddr: 0x100011B28, symSize: 0x410 }
  - { offsetInCU: 0x5C, offset: 0x2C6AE, size: 0x8, addend: 0x0, symName: __ZNSt3__1L19piecewise_constructE, symObjAddr: 0x75BF, symBinAddr: 0x100016A30, symSize: 0x0 }
  - { offsetInCU: 0x6396, offset: 0x329E8, size: 0x8, addend: 0x0, symName: __ZNSt3__1eqB8ue170006ERKNS_14__map_iteratorINS_15__tree_iteratorINS_12__value_typeI12PackedVertextEEPNS_11__tree_nodeIS4_PvEElEEEESC_, symObjAddr: 0x72C, symBinAddr: 0x100012514, symSize: 0x30 }
  - { offsetInCU: 0x63D3, offset: 0x32A25, size: 0x8, addend: 0x0, symName: __ZNSt3__112__to_addressB8ue170006ItEEPT_S2_, symObjAddr: 0xFCC, symBinAddr: 0x100012D60, symSize: 0x14 }
  - { offsetInCU: 0x6408, offset: 0x32A5A, size: 0x8, addend: 0x0, symName: __ZNSt3__119__allocate_at_leastB8ue170006INS_9allocatorItEEEENS_19__allocation_resultINS_16allocator_traitsIT_E7pointerEEERS5_m, symObjAddr: 0x1830, symBinAddr: 0x100013384, symSize: 0x40 }
  - { offsetInCU: 0x644B, offset: 0x32A9D, size: 0x8, addend: 0x0, symName: __ZNSt3__142__uninitialized_allocator_move_if_noexceptB8ue170006INS_9allocatorItEENS_16reverse_iteratorIPtEES5_tvEET1_RT_T0_S9_S6_, symObjAddr: 0x1B38, symBinAddr: 0x10001360C, symSize: 0x78 }
  - { offsetInCU: 0x64C8, offset: 0x32B1A, size: 0x8, addend: 0x0, symName: __ZNSt3__14swapB8ue170006IPtEENS_9enable_ifIXaasr21is_move_constructibleIT_EE5valuesr18is_move_assignableIS3_EE5valueEvE4typeERS3_S6_, symObjAddr: 0x1BFC, symBinAddr: 0x1000136D0, symSize: 0x3C }
  - { offsetInCU: 0x6519, offset: 0x32B6B, size: 0x8, addend: 0x0, symName: __ZNSt3__14moveB8ue170006INS_16reverse_iteratorIPtEES3_EET0_T_S5_S4_, symObjAddr: 0x1D2C, symBinAddr: 0x100013800, symSize: 0x78 }
  - { offsetInCU: 0x6573, offset: 0x32BC5, size: 0x8, addend: 0x0, symName: __ZNSt3__16__moveB8ue170006INS_17_ClassicAlgPolicyENS_16reverse_iteratorIPtEES4_S4_EENS_4pairIT0_T2_EES6_T1_S7_, symObjAddr: 0x1DA4, symBinAddr: 0x100013878, symSize: 0x64 }
  - { offsetInCU: 0x65DF, offset: 0x32C31, size: 0x8, addend: 0x0, symName: __ZNSt3__123__dispatch_copy_or_moveB8ue170006INS_17_ClassicAlgPolicyENS_11__move_loopIS1_EENS_14__move_trivialENS_16reverse_iteratorIPtEES7_S7_EENS_4pairIT2_T4_EES9_T3_SA_, symObjAddr: 0x1E08, symBinAddr: 0x1000138DC, symSize: 0x64 }
  - { offsetInCU: 0x665D, offset: 0x32CAF, size: 0x8, addend: 0x0, symName: __ZNSt3__121__unwrap_and_dispatchB8ue170006INS_10__overloadINS_11__move_loopINS_17_ClassicAlgPolicyEEENS_14__move_trivialEEENS_16reverse_iteratorIPtEES9_S9_Li0EEENS_4pairIT0_T2_EESB_T1_SC_, symObjAddr: 0x1E6C, symBinAddr: 0x100013940, symSize: 0x12C }
  - { offsetInCU: 0x66EE, offset: 0x32D40, size: 0x8, addend: 0x0, symName: __ZNSt3__114__unwrap_rangeB8ue170006INS_16reverse_iteratorIPtEES3_EENS_4pairIT0_S5_EET_S7_, symObjAddr: 0x1F98, symBinAddr: 0x100013A6C, symSize: 0x84 }
  - { offsetInCU: 0x68DE, offset: 0x32F30, size: 0x8, addend: 0x0, symName: __ZNSt3__113__unwrap_iterB8ue170006INS_16reverse_iteratorIPtEENS_18__unwrap_iter_implIS3_Lb0EEELi0EEEDTclsrT0_8__unwrapclsr3stdE7declvalIT_EEEES7_, symObjAddr: 0x20BC, symBinAddr: 0x100013B90, symSize: 0x44 }
  - { offsetInCU: 0x6923, offset: 0x32F75, size: 0x8, addend: 0x0, symName: __ZNSt3__19make_pairB8ue170006INS_16reverse_iteratorIPtEES3_EENS_4pairINS_18__unwrap_ref_decayIT_E4typeENS5_IT0_E4typeEEEOS6_OS9_, symObjAddr: 0x2100, symBinAddr: 0x100013BD4, symSize: 0x38 }
  - { offsetInCU: 0x6972, offset: 0x32FC4, size: 0x8, addend: 0x0, symName: __ZNSt3__114__rewrap_rangeB8ue170006INS_16reverse_iteratorIPtEES3_EET_S4_T0_, symObjAddr: 0x2138, symBinAddr: 0x100013C0C, symSize: 0x5C }
  - { offsetInCU: 0x69BE, offset: 0x33010, size: 0x8, addend: 0x0, symName: __ZNSt3__113__rewrap_iterB8ue170006INS_16reverse_iteratorIPtEES3_NS_18__unwrap_iter_implIS3_Lb0EEEEET_S6_T0_, symObjAddr: 0x2194, symBinAddr: 0x100013C68, symSize: 0x74 }
  - { offsetInCU: 0x6A13, offset: 0x33065, size: 0x8, addend: 0x0, symName: __ZNSt3__1neB8ue170006IPtS1_EEbRKNS_16reverse_iteratorIT_EERKNS2_IT0_EE, symObjAddr: 0x2208, symBinAddr: 0x100013CDC, symSize: 0x48 }
  - { offsetInCU: 0x6B77, offset: 0x331C9, size: 0x8, addend: 0x0, symName: __ZNSt3__1neB8ue170006ERKNS_15__tree_iteratorINS_12__value_typeI12PackedVertextEEPNS_11__tree_nodeIS3_PvEElEESA_, symObjAddr: 0x5730, symBinAddr: 0x100014508, symSize: 0x34 }
  - { offsetInCU: 0x6BE7, offset: 0x33239, size: 0x8, addend: 0x0, symName: __ZNSt3__1eqB8ue170006ERKNS_15__tree_iteratorINS_12__value_typeI12PackedVertextEEPNS_11__tree_nodeIS3_PvEElEESA_, symObjAddr: 0x5A1C, symBinAddr: 0x1000147F4, symSize: 0x30 }
  - { offsetInCU: 0x6CC1, offset: 0x33313, size: 0x8, addend: 0x0, symName: __ZNSt3__116forward_as_tupleB8ue170006IJRK12PackedVertexEEENS_5tupleIJDpOT_EEES7_, symObjAddr: 0x61A8, symBinAddr: 0x100014F80, symSize: 0x2C }
  - { offsetInCU: 0x6CFA, offset: 0x3334C, size: 0x8, addend: 0x0, symName: __ZNSt3__116forward_as_tupleB8ue170006IJEEENS_5tupleIJDpOT_EEES4_, symObjAddr: 0x61D4, symBinAddr: 0x100014FAC, symSize: 0x4 }
  - { offsetInCU: 0x6D48, offset: 0x3339A, size: 0x8, addend: 0x0, symName: __ZNSt3__13getB8ue170006ILm0EJRK12PackedVertexEEERNS_13tuple_elementIXT_ENS_5tupleIJDpT0_EEEE4typeERS8_, symObjAddr: 0x6A9C, symBinAddr: 0x100015874, symSize: 0x24 }
  - { offsetInCU: 0x6D8B, offset: 0x333DD, size: 0x8, addend: 0x0, symName: __ZNSt3__127__tree_balance_after_insertB8ue170006IPNS_16__tree_node_baseIPvEEEEvT_S5_, symObjAddr: 0x6B4C, symBinAddr: 0x100015924, symSize: 0x32C }
  - { offsetInCU: 0x6E09, offset: 0x3345B, size: 0x8, addend: 0x0, symName: __ZNSt3__120__tree_is_left_childB8ue170006IPNS_16__tree_node_baseIPvEEEEbT_, symObjAddr: 0x6EB8, symBinAddr: 0x100015C90, symSize: 0x2C }
  - { offsetInCU: 0x6E3E, offset: 0x33490, size: 0x8, addend: 0x0, symName: __ZNSt3__118__tree_left_rotateB8ue170006IPNS_16__tree_node_baseIPvEEEEvT_, symObjAddr: 0x6EE4, symBinAddr: 0x100015CBC, symSize: 0xD8 }
  - { offsetInCU: 0x6E80, offset: 0x334D2, size: 0x8, addend: 0x0, symName: __ZNSt3__119__tree_right_rotateB8ue170006IPNS_16__tree_node_baseIPvEEEEvT_, symObjAddr: 0x6FBC, symBinAddr: 0x100015D94, symSize: 0xCC }
  - { offsetInCU: 0x7181, offset: 0x337D3, size: 0x8, addend: 0x0, symName: __ZNSt3__16vectorItNS_9allocatorItEEE26__swap_out_circular_bufferERNS_14__split_bufferItRS2_EE, symObjAddr: 0x11F0, symBinAddr: 0x100012F84, symSize: 0x110 }
  - { offsetInCU: 0x9447, offset: 0x35A99, size: 0x8, addend: 0x0, symName: __Z7is_nearff, symObjAddr: 0x0, symBinAddr: 0x100011F38, symSize: 0x48 }
  - { offsetInCU: 0x9481, offset: 0x35AD3, size: 0x8, addend: 0x0, symName: __Z4fabsB8ue170006f, symObjAddr: 0x48, symBinAddr: 0x100011F80, symSize: 0x18 }
  - { offsetInCU: 0x94AF, offset: 0x35B01, size: 0x8, addend: 0x0, symName: __Z21getSimilarVertexIndexRN3glm3vecILi3EfLNS_9qualifierE0EEERNS0_ILi2EfLS1_0EEES3_RNSt3__16vectorIS2_NS6_9allocatorIS2_EEEERNS7_IS4_NS8_IS4_EEEESB_Rt, symObjAddr: 0x60, symBinAddr: 0x100011F98, symSize: 0x230 }
  - { offsetInCU: 0x954C, offset: 0x35B9E, size: 0x8, addend: 0x0, symName: __Z13indexVBO_slowRNSt3__16vectorIN3glm3vecILi3EfLNS1_9qualifierE0EEENS_9allocatorIS4_EEEERNS0_INS2_ILi2EfLS3_0EEENS5_IS9_EEEES8_RNS0_ItNS5_ItEEEES8_SC_S8_, symObjAddr: 0x308, symBinAddr: 0x1000121C8, symSize: 0x190 }
  - { offsetInCU: 0x9610, offset: 0x35C62, size: 0x8, addend: 0x0, symName: __ZNSt3__16vectorItNS_9allocatorItEEE9push_backB8ue170006ERKt, symObjAddr: 0x498, symBinAddr: 0x100012358, symSize: 0x6C }
  - { offsetInCU: 0x9646, offset: 0x35C98, size: 0x8, addend: 0x0, symName: __ZNSt3__16vectorItNS_9allocatorItEEE9push_backB8ue170006EOt, symObjAddr: 0x5DC, symBinAddr: 0x1000123C4, symSize: 0x6C }
  - { offsetInCU: 0x967C, offset: 0x35CCE, size: 0x8, addend: 0x0, symName: __Z26getSimilarVertexIndex_fastR12PackedVertexRNSt3__13mapIS_tNS1_4lessIS_EENS1_9allocatorINS1_4pairIKS_tEEEEEERt, symObjAddr: 0x648, symBinAddr: 0x100012430, symSize: 0xA4 }
  - { offsetInCU: 0x96D2, offset: 0x35D24, size: 0x8, addend: 0x0, symName: __ZNSt3__13mapI12PackedVertextNS_4lessIS1_EENS_9allocatorINS_4pairIKS1_tEEEEE4findB8ue170006ERS6_, symObjAddr: 0x6EC, symBinAddr: 0x1000124D4, symSize: 0x40 }
  - { offsetInCU: 0x9705, offset: 0x35D57, size: 0x8, addend: 0x0, symName: __ZNSt3__13mapI12PackedVertextNS_4lessIS1_EENS_9allocatorINS_4pairIKS1_tEEEEE3endB8ue170006Ev, symObjAddr: 0x75C, symBinAddr: 0x100012544, symSize: 0x38 }
  - { offsetInCU: 0x9729, offset: 0x35D7B, size: 0x8, addend: 0x0, symName: __ZNKSt3__114__map_iteratorINS_15__tree_iteratorINS_12__value_typeI12PackedVertextEEPNS_11__tree_nodeIS4_PvEElEEEptB8ue170006Ev, symObjAddr: 0x794, symBinAddr: 0x10001257C, symSize: 0x2C }
  - { offsetInCU: 0x974D, offset: 0x35D9F, size: 0x8, addend: 0x0, symName: __Z8indexVBORNSt3__16vectorIN3glm3vecILi3EfLNS1_9qualifierE0EEENS_9allocatorIS4_EEEERNS0_INS2_ILi2EfLS3_0EEENS5_IS9_EEEES8_RNS0_ItNS5_ItEEEES8_SC_S8_, symObjAddr: 0x7C0, symBinAddr: 0x1000125A8, symSize: 0x234 }
  - { offsetInCU: 0x983F, offset: 0x35E91, size: 0x8, addend: 0x0, symName: __ZNSt3__13mapI12PackedVertextNS_4lessIS1_EENS_9allocatorINS_4pairIKS1_tEEEEEC1B8ue170006Ev, symObjAddr: 0x9F4, symBinAddr: 0x1000127DC, symSize: 0x2C }
  - { offsetInCU: 0x9866, offset: 0x35EB8, size: 0x8, addend: 0x0, symName: __ZNSt3__13mapI12PackedVertextNS_4lessIS1_EENS_9allocatorINS_4pairIKS1_tEEEEEixERS6_, symObjAddr: 0xA20, symBinAddr: 0x100012808, symSize: 0x80 }
  - { offsetInCU: 0x989D, offset: 0x35EEF, size: 0x8, addend: 0x0, symName: __ZNSt3__13mapI12PackedVertextNS_4lessIS1_EENS_9allocatorINS_4pairIKS1_tEEEEED1B8ue170006Ev, symObjAddr: 0xAA0, symBinAddr: 0x100012888, symSize: 0x2C }
  - { offsetInCU: 0x98C4, offset: 0x35F16, size: 0x8, addend: 0x0, symName: __Z12indexVBO_TBNRNSt3__16vectorIN3glm3vecILi3EfLNS1_9qualifierE0EEENS_9allocatorIS4_EEEERNS0_INS2_ILi2EfLS3_0EEENS5_IS9_EEEES8_S8_S8_RNS0_ItNS5_ItEEEES8_SC_S8_S8_S8_, symObjAddr: 0xACC, symBinAddr: 0x1000128B4, symSize: 0x24C }
  - { offsetInCU: 0x99C6, offset: 0x36018, size: 0x8, addend: 0x0, symName: __ZNSt3__16vectorItNS_9allocatorItEEE9__end_capB8ue170006Ev, symObjAddr: 0xD6C, symBinAddr: 0x100012B00, symSize: 0x28 }
  - { offsetInCU: 0x99EA, offset: 0x3603C, size: 0x8, addend: 0x0, symName: __ZNSt3__16vectorItNS_9allocatorItEEE22__construct_one_at_endB8ue170006IJRKtEEEvDpOT_, symObjAddr: 0xD94, symBinAddr: 0x100012B28, symSize: 0x90 }
  - { offsetInCU: 0x9A37, offset: 0x36089, size: 0x8, addend: 0x0, symName: __ZNSt3__16vectorItNS_9allocatorItEEE21__push_back_slow_pathIRKtEEvOT_, symObjAddr: 0xE24, symBinAddr: 0x100012BB8, symSize: 0xD8 }
  - { offsetInCU: 0x9A94, offset: 0x360E6, size: 0x8, addend: 0x0, symName: __ZNSt3__117__compressed_pairIPtNS_9allocatorItEEE5firstB8ue170006Ev, symObjAddr: 0xEFC, symBinAddr: 0x100012C90, symSize: 0x24 }
  - { offsetInCU: 0x9AB8, offset: 0x3610A, size: 0x8, addend: 0x0, symName: __ZNSt3__122__compressed_pair_elemIPtLi0ELb0EE5__getB8ue170006Ev, symObjAddr: 0xF20, symBinAddr: 0x100012CB4, symSize: 0x14 }
  - { offsetInCU: 0x9AF6, offset: 0x36148, size: 0x8, addend: 0x0, symName: __ZNSt3__16vectorItNS_9allocatorItEEE21_ConstructTransactionC1B8ue170006ERS3_m, symObjAddr: 0xF34, symBinAddr: 0x100012CC8, symSize: 0x3C }
  - { offsetInCU: 0x9B3C, offset: 0x3618E, size: 0x8, addend: 0x0, symName: __ZNSt3__116allocator_traitsINS_9allocatorItEEE9constructB8ue170006ItJRKtEvEEvRS2_PT_DpOT0_, symObjAddr: 0xF70, symBinAddr: 0x100012D04, symSize: 0x34 }
  - { offsetInCU: 0x9B91, offset: 0x361E3, size: 0x8, addend: 0x0, symName: __ZNSt3__16vectorItNS_9allocatorItEEE7__allocB8ue170006Ev, symObjAddr: 0xFA4, symBinAddr: 0x100012D38, symSize: 0x28 }
  - { offsetInCU: 0x9BB6, offset: 0x36208, size: 0x8, addend: 0x0, symName: __ZNSt3__16vectorItNS_9allocatorItEEE21_ConstructTransactionD1B8ue170006Ev, symObjAddr: 0xFE0, symBinAddr: 0x100012D74, symSize: 0x2C }
  - { offsetInCU: 0x9BDE, offset: 0x36230, size: 0x8, addend: 0x0, symName: __ZNSt3__16vectorItNS_9allocatorItEEE21_ConstructTransactionC2B8ue170006ERS3_m, symObjAddr: 0x100C, symBinAddr: 0x100012DA0, symSize: 0x44 }
  - { offsetInCU: 0x9C23, offset: 0x36275, size: 0x8, addend: 0x0, symName: __ZNSt3__19allocatorItE9constructB8ue170006ItJRKtEEEvPT_DpOT0_, symObjAddr: 0x1050, symBinAddr: 0x100012DE4, symSize: 0x28 }
  - { offsetInCU: 0x9C77, offset: 0x362C9, size: 0x8, addend: 0x0, symName: __ZNSt3__117__compressed_pairIPtNS_9allocatorItEEE6secondB8ue170006Ev, symObjAddr: 0x1078, symBinAddr: 0x100012E0C, symSize: 0x24 }
  - { offsetInCU: 0x9C9B, offset: 0x362ED, size: 0x8, addend: 0x0, symName: __ZNSt3__122__compressed_pair_elemINS_9allocatorItEELi1ELb1EE5__getB8ue170006Ev, symObjAddr: 0x109C, symBinAddr: 0x100012E30, symSize: 0x14 }
  - { offsetInCU: 0x9CC0, offset: 0x36312, size: 0x8, addend: 0x0, symName: __ZNSt3__16vectorItNS_9allocatorItEEE21_ConstructTransactionD2B8ue170006Ev, symObjAddr: 0x10B0, symBinAddr: 0x100012E44, symSize: 0x20 }
  - { offsetInCU: 0x9CE7, offset: 0x36339, size: 0x8, addend: 0x0, symName: __ZNKSt3__16vectorItNS_9allocatorItEEE11__recommendB8ue170006Em, symObjAddr: 0x10D0, symBinAddr: 0x100012E64, symSize: 0xB4 }
  - { offsetInCU: 0x9D3B, offset: 0x3638D, size: 0x8, addend: 0x0, symName: __ZNKSt3__16vectorItNS_9allocatorItEEE4sizeB8ue170006Ev, symObjAddr: 0x1184, symBinAddr: 0x100012F18, symSize: 0x28 }
  - { offsetInCU: 0x9D60, offset: 0x363B2, size: 0x8, addend: 0x0, symName: __ZNSt3__114__split_bufferItRNS_9allocatorItEEEC1EmmS3_, symObjAddr: 0x11AC, symBinAddr: 0x100012F40, symSize: 0x44 }
  - { offsetInCU: 0x9DB5, offset: 0x36407, size: 0x8, addend: 0x0, symName: __ZNSt3__114__split_bufferItRNS_9allocatorItEEED1Ev, symObjAddr: 0x1300, symBinAddr: 0x100013094, symSize: 0x2C }
  - { offsetInCU: 0x9DDF, offset: 0x36431, size: 0x8, addend: 0x0, symName: __ZNKSt3__16vectorItNS_9allocatorItEEE8max_sizeEv, symObjAddr: 0x132C, symBinAddr: 0x1000130C0, symSize: 0x60 }
  - { offsetInCU: 0x9E06, offset: 0x36458, size: 0x8, addend: 0x0, symName: __ZNKSt3__16vectorItNS_9allocatorItEEE20__throw_length_errorB8ue170006Ev, symObjAddr: 0x138C, symBinAddr: 0x100013120, symSize: 0x1C }
  - { offsetInCU: 0x9E2A, offset: 0x3647C, size: 0x8, addend: 0x0, symName: __ZNKSt3__16vectorItNS_9allocatorItEEE8capacityB8ue170006Ev, symObjAddr: 0x13A8, symBinAddr: 0x10001313C, symSize: 0x40 }
  - { offsetInCU: 0x9E59, offset: 0x364AB, size: 0x8, addend: 0x0, symName: __ZNSt3__116allocator_traitsINS_9allocatorItEEE8max_sizeB8ue170006IS2_vEEmRKS2_, symObjAddr: 0x1440, symBinAddr: 0x10001317C, symSize: 0x24 }
  - { offsetInCU: 0x9E85, offset: 0x364D7, size: 0x8, addend: 0x0, symName: __ZNKSt3__16vectorItNS_9allocatorItEEE7__allocB8ue170006Ev, symObjAddr: 0x1464, symBinAddr: 0x1000131A0, symSize: 0x28 }
  - { offsetInCU: 0x9EA9, offset: 0x364FB, size: 0x8, addend: 0x0, symName: __ZNKSt3__19allocatorItE8max_sizeB8ue170006Ev, symObjAddr: 0x1534, symBinAddr: 0x1000131C8, symSize: 0x14 }
  - { offsetInCU: 0x9ECD, offset: 0x3651F, size: 0x8, addend: 0x0, symName: __ZNKSt3__117__compressed_pairIPtNS_9allocatorItEEE6secondB8ue170006Ev, symObjAddr: 0x1548, symBinAddr: 0x1000131DC, symSize: 0x24 }
  - { offsetInCU: 0x9EF1, offset: 0x36543, size: 0x8, addend: 0x0, symName: __ZNKSt3__122__compressed_pair_elemINS_9allocatorItEELi1ELb1EE5__getB8ue170006Ev, symObjAddr: 0x156C, symBinAddr: 0x100013200, symSize: 0x14 }
  - { offsetInCU: 0x9F15, offset: 0x36567, size: 0x8, addend: 0x0, symName: __ZNKSt3__16vectorItNS_9allocatorItEEE9__end_capB8ue170006Ev, symObjAddr: 0x166C, symBinAddr: 0x100013214, symSize: 0x28 }
  - { offsetInCU: 0x9F39, offset: 0x3658B, size: 0x8, addend: 0x0, symName: __ZNKSt3__117__compressed_pairIPtNS_9allocatorItEEE5firstB8ue170006Ev, symObjAddr: 0x1694, symBinAddr: 0x10001323C, symSize: 0x24 }
  - { offsetInCU: 0x9F5D, offset: 0x365AF, size: 0x8, addend: 0x0, symName: __ZNKSt3__122__compressed_pair_elemIPtLi0ELb0EE5__getB8ue170006Ev, symObjAddr: 0x16B8, symBinAddr: 0x100013260, symSize: 0x14 }
  - { offsetInCU: 0x9F82, offset: 0x365D4, size: 0x8, addend: 0x0, symName: __ZNSt3__114__split_bufferItRNS_9allocatorItEEEC2EmmS3_, symObjAddr: 0x1720, symBinAddr: 0x100013274, symSize: 0xD4 }
  - { offsetInCU: 0x9FFA, offset: 0x3664C, size: 0x8, addend: 0x0, symName: __ZNSt3__117__compressed_pairIPtRNS_9allocatorItEEEC1B8ue170006IDnS4_EEOT_OT0_, symObjAddr: 0x17F4, symBinAddr: 0x100013348, symSize: 0x3C }
  - { offsetInCU: 0xA04F, offset: 0x366A1, size: 0x8, addend: 0x0, symName: __ZNSt3__114__split_bufferItRNS_9allocatorItEEE7__allocB8ue170006Ev, symObjAddr: 0x1870, symBinAddr: 0x1000133C4, symSize: 0x28 }
  - { offsetInCU: 0xA073, offset: 0x366C5, size: 0x8, addend: 0x0, symName: __ZNSt3__114__split_bufferItRNS_9allocatorItEEE9__end_capB8ue170006Ev, symObjAddr: 0x1898, symBinAddr: 0x1000133EC, symSize: 0x28 }
  - { offsetInCU: 0xA098, offset: 0x366EA, size: 0x8, addend: 0x0, symName: __ZNSt3__117__compressed_pairIPtRNS_9allocatorItEEEC2B8ue170006IDnS4_EEOT_OT0_, symObjAddr: 0x18C0, symBinAddr: 0x100013414, symSize: 0x48 }
  - { offsetInCU: 0xA0EE, offset: 0x36740, size: 0x8, addend: 0x0, symName: __ZNSt3__122__compressed_pair_elemIPtLi0ELb0EEC2B8ue170006IDnvEEOT_, symObjAddr: 0x1908, symBinAddr: 0x10001345C, symSize: 0x1C }
  - { offsetInCU: 0xA12E, offset: 0x36780, size: 0x8, addend: 0x0, symName: __ZNSt3__122__compressed_pair_elemIRNS_9allocatorItEELi1ELb0EEC2B8ue170006IS3_vEEOT_, symObjAddr: 0x1924, symBinAddr: 0x100013478, symSize: 0x20 }
  - { offsetInCU: 0xA16D, offset: 0x367BF, size: 0x8, addend: 0x0, symName: __ZNSt3__19allocatorItE8allocateB8ue170006Em, symObjAddr: 0x1944, symBinAddr: 0x100013498, symSize: 0x58 }
  - { offsetInCU: 0xA19F, offset: 0x367F1, size: 0x8, addend: 0x0, symName: __ZNSt3__117__compressed_pairIPtRNS_9allocatorItEEE6secondB8ue170006Ev, symObjAddr: 0x1A1C, symBinAddr: 0x1000134F0, symSize: 0x28 }
  - { offsetInCU: 0xA1C3, offset: 0x36815, size: 0x8, addend: 0x0, symName: __ZNSt3__122__compressed_pair_elemIRNS_9allocatorItEELi1ELb0EE5__getB8ue170006Ev, symObjAddr: 0x1A44, symBinAddr: 0x100013518, symSize: 0x18 }
  - { offsetInCU: 0xA1E7, offset: 0x36839, size: 0x8, addend: 0x0, symName: __ZNSt3__117__compressed_pairIPtRNS_9allocatorItEEE5firstB8ue170006Ev, symObjAddr: 0x1A5C, symBinAddr: 0x100013530, symSize: 0x24 }
  - { offsetInCU: 0xA20B, offset: 0x3685D, size: 0x8, addend: 0x0, symName: __ZNKSt3__16vectorItNS_9allocatorItEEE17__annotate_deleteB8ue170006Ev, symObjAddr: 0x1A80, symBinAddr: 0x100013554, symSize: 0xB8 }
  - { offsetInCU: 0xA230, offset: 0x36882, size: 0x8, addend: 0x0, symName: __ZNSt3__116reverse_iteratorIPtEC1B8ue170006ES1_, symObjAddr: 0x1BB0, symBinAddr: 0x100013684, symSize: 0x34 }
  - { offsetInCU: 0xA265, offset: 0x368B7, size: 0x8, addend: 0x0, symName: __ZNKSt3__116reverse_iteratorIPtE4baseB8ue170006Ev, symObjAddr: 0x1BE4, symBinAddr: 0x1000136B8, symSize: 0x18 }
  - { offsetInCU: 0xA289, offset: 0x368DB, size: 0x8, addend: 0x0, symName: __ZNKSt3__16vectorItNS_9allocatorItEEE14__annotate_newB8ue170006Em, symObjAddr: 0x1C38, symBinAddr: 0x10001370C, symSize: 0xAC }
  - { offsetInCU: 0xA2BC, offset: 0x3690E, size: 0x8, addend: 0x0, symName: __ZNKSt3__16vectorItNS_9allocatorItEEE31__annotate_contiguous_containerB8ue170006EPKvS5_S5_S5_, symObjAddr: 0x1CE4, symBinAddr: 0x1000137B8, symSize: 0x20 }
  - { offsetInCU: 0xA30C, offset: 0x3695E, size: 0x8, addend: 0x0, symName: __ZNKSt3__16vectorItNS_9allocatorItEEE4dataB8ue170006Ev, symObjAddr: 0x1D04, symBinAddr: 0x1000137D8, symSize: 0x28 }
  - { offsetInCU: 0xA353, offset: 0x369A5, size: 0x8, addend: 0x0, symName: __ZNKSt3__111__move_loopINS_17_ClassicAlgPolicyEEclB8ue170006INS_16reverse_iteratorIPtEES6_S6_EENS_4pairIT_T1_EES8_T0_S9_, symObjAddr: 0x201C, symBinAddr: 0x100013AF0, symSize: 0xA0 }
  - { offsetInCU: 0xA3C2, offset: 0x36A14, size: 0x8, addend: 0x0, symName: __ZNSt3__18_IterOpsINS_17_ClassicAlgPolicyEE11__iter_moveB8ue170006IRNS_16reverse_iteratorIPtEEEENS_9enable_ifIXsr12is_referenceIDTdeclsr3stdE7declvalIRT_EEEEE5valueEDTclsr3stdE4movedeclsr3stdE7declvalISA_EEEEE4typeEOS9_, symObjAddr: 0x2250, symBinAddr: 0x100013D24, symSize: 0x28 }
  - { offsetInCU: 0xA3EC, offset: 0x36A3E, size: 0x8, addend: 0x0, symName: __ZNKSt3__116reverse_iteratorIPtEdeB8ue170006Ev, symObjAddr: 0x2278, symBinAddr: 0x100013D4C, symSize: 0x28 }
  - { offsetInCU: 0xA41E, offset: 0x36A70, size: 0x8, addend: 0x0, symName: __ZNSt3__116reverse_iteratorIPtEppB8ue170006Ev, symObjAddr: 0x22A0, symBinAddr: 0x100013D74, symSize: 0x20 }
  - { offsetInCU: 0xA443, offset: 0x36A95, size: 0x8, addend: 0x0, symName: __ZNSt3__18_IterOpsINS_17_ClassicAlgPolicyEE25__validate_iter_referenceB8ue170006IRNS_16reverse_iteratorIPtEEEEvv, symObjAddr: 0x22C0, symBinAddr: 0x100013D94, symSize: 0x4 }
  - { offsetInCU: 0xA460, offset: 0x36AB2, size: 0x8, addend: 0x0, symName: __ZNSt3__118__unwrap_iter_implINS_16reverse_iteratorIPtEELb0EE8__unwrapB8ue170006ES3_, symObjAddr: 0x22C4, symBinAddr: 0x100013D98, symSize: 0x24 }
  - { offsetInCU: 0xA487, offset: 0x36AD9, size: 0x8, addend: 0x0, symName: __ZNSt3__14pairINS_16reverse_iteratorIPtEES3_EC1B8ue170006IS3_S3_LPv0EEEOT_OT0_, symObjAddr: 0x22E8, symBinAddr: 0x100013DBC, symSize: 0x3C }
  - { offsetInCU: 0xA4E3, offset: 0x36B35, size: 0x8, addend: 0x0, symName: __ZNSt3__14pairINS_16reverse_iteratorIPtEES3_EC2B8ue170006IS3_S3_LPv0EEEOT_OT0_, symObjAddr: 0x2324, symBinAddr: 0x100013DF8, symSize: 0x34 }
  - { offsetInCU: 0xA53F, offset: 0x36B91, size: 0x8, addend: 0x0, symName: __ZNSt3__118__unwrap_iter_implINS_16reverse_iteratorIPtEELb0EE8__rewrapB8ue170006ES3_S3_, symObjAddr: 0x2358, symBinAddr: 0x100013E2C, symSize: 0x2C }
  - { offsetInCU: 0xA56B, offset: 0x36BBD, size: 0x8, addend: 0x0, symName: __ZNSt3__116reverse_iteratorIPtEC2B8ue170006ES1_, symObjAddr: 0x2384, symBinAddr: 0x100013E58, symSize: 0x28 }
  - { offsetInCU: 0xA5A1, offset: 0x36BF3, size: 0x8, addend: 0x0, symName: __ZNSt3__114__split_bufferItRNS_9allocatorItEEED2Ev, symObjAddr: 0x23AC, symBinAddr: 0x100013E80, symSize: 0x8C }
  - { offsetInCU: 0xA5CB, offset: 0x36C1D, size: 0x8, addend: 0x0, symName: __ZNSt3__114__split_bufferItRNS_9allocatorItEEE5clearB8ue170006Ev, symObjAddr: 0x2438, symBinAddr: 0x100013F0C, symSize: 0x28 }
  - { offsetInCU: 0xA5F0, offset: 0x36C42, size: 0x8, addend: 0x0, symName: __ZNSt3__116allocator_traitsINS_9allocatorItEEE10deallocateB8ue170006ERS2_Ptm, symObjAddr: 0x2460, symBinAddr: 0x100013F34, symSize: 0x34 }
  - { offsetInCU: 0xA630, offset: 0x36C82, size: 0x8, addend: 0x0, symName: __ZNKSt3__114__split_bufferItRNS_9allocatorItEEE8capacityB8ue170006Ev, symObjAddr: 0x2494, symBinAddr: 0x100013F68, symSize: 0x40 }
  - { offsetInCU: 0xA654, offset: 0x36CA6, size: 0x8, addend: 0x0, symName: __ZNSt3__114__split_bufferItRNS_9allocatorItEEE17__destruct_at_endB8ue170006EPt, symObjAddr: 0x24D4, symBinAddr: 0x100013FA8, symSize: 0x2C }
  - { offsetInCU: 0xA686, offset: 0x36CD8, size: 0x8, addend: 0x0, symName: __ZNSt3__114__split_bufferItRNS_9allocatorItEEE17__destruct_at_endB8ue170006EPtNS_17integral_constantIbLb0EEE, symObjAddr: 0x2500, symBinAddr: 0x100013FD4, symSize: 0x80 }
  - { offsetInCU: 0xA6C6, offset: 0x36D18, size: 0x8, addend: 0x0, symName: __ZNSt3__116allocator_traitsINS_9allocatorItEEE7destroyB8ue170006ItvEEvRS2_PT_, symObjAddr: 0x2580, symBinAddr: 0x100014054, symSize: 0x2C }
  - { offsetInCU: 0xA701, offset: 0x36D53, size: 0x8, addend: 0x0, symName: __ZNSt3__19allocatorItE7destroyB8ue170006EPt, symObjAddr: 0x25AC, symBinAddr: 0x100014080, symSize: 0x14 }
  - { offsetInCU: 0xA733, offset: 0x36D85, size: 0x8, addend: 0x0, symName: __ZNSt3__19allocatorItE10deallocateB8ue170006EPtm, symObjAddr: 0x25C0, symBinAddr: 0x100014094, symSize: 0x40 }
  - { offsetInCU: 0xA773, offset: 0x36DC5, size: 0x8, addend: 0x0, symName: __ZNKSt3__114__split_bufferItRNS_9allocatorItEEE9__end_capB8ue170006Ev, symObjAddr: 0x267C, symBinAddr: 0x1000140D4, symSize: 0x28 }
  - { offsetInCU: 0xA797, offset: 0x36DE9, size: 0x8, addend: 0x0, symName: __ZNKSt3__117__compressed_pairIPtRNS_9allocatorItEEE5firstB8ue170006Ev, symObjAddr: 0x26A4, symBinAddr: 0x1000140FC, symSize: 0x24 }
  - { offsetInCU: 0xA7ED, offset: 0x36E3F, size: 0x8, addend: 0x0, symName: __ZNSt3__16vectorItNS_9allocatorItEEE22__construct_one_at_endB8ue170006IJtEEEvDpOT_, symObjAddr: 0x5348, symBinAddr: 0x100014120, symSize: 0x90 }
  - { offsetInCU: 0xA83A, offset: 0x36E8C, size: 0x8, addend: 0x0, symName: __ZNSt3__16vectorItNS_9allocatorItEEE21__push_back_slow_pathItEEvOT_, symObjAddr: 0x53D8, symBinAddr: 0x1000141B0, symSize: 0xD8 }
  - { offsetInCU: 0xA898, offset: 0x36EEA, size: 0x8, addend: 0x0, symName: __ZNSt3__116allocator_traitsINS_9allocatorItEEE9constructB8ue170006ItJtEvEEvRS2_PT_DpOT0_, symObjAddr: 0x54B0, symBinAddr: 0x100014288, symSize: 0x34 }
  - { offsetInCU: 0xA8ED, offset: 0x36F3F, size: 0x8, addend: 0x0, symName: __ZNSt3__19allocatorItE9constructB8ue170006ItJtEEEvPT_DpOT0_, symObjAddr: 0x54E4, symBinAddr: 0x1000142BC, symSize: 0x28 }
  - { offsetInCU: 0xA941, offset: 0x36F93, size: 0x8, addend: 0x0, symName: __ZNSt3__16__treeINS_12__value_typeI12PackedVertextEENS_19__map_value_compareIS2_S3_NS_4lessIS2_EELb1EEENS_9allocatorIS3_EEE4findIS2_EENS_15__tree_iteratorIS3_PNS_11__tree_nodeIS3_PvEElEERKT_, symObjAddr: 0x550C, symBinAddr: 0x1000142E4, symSize: 0xF8 }
  - { offsetInCU: 0xA990, offset: 0x36FE2, size: 0x8, addend: 0x0, symName: __ZNSt3__114__map_iteratorINS_15__tree_iteratorINS_12__value_typeI12PackedVertextEEPNS_11__tree_nodeIS4_PvEElEEEC1B8ue170006ES9_, symObjAddr: 0x5604, symBinAddr: 0x1000143DC, symSize: 0x34 }
  - { offsetInCU: 0xA9C6, offset: 0x37018, size: 0x8, addend: 0x0, symName: __ZNSt3__16__treeINS_12__value_typeI12PackedVertextEENS_19__map_value_compareIS2_S3_NS_4lessIS2_EELb1EEENS_9allocatorIS3_EEE13__lower_boundIS2_EENS_15__tree_iteratorIS3_PNS_11__tree_nodeIS3_PvEElEERKT_SG_PNS_15__tree_end_nodeIPNS_16__tree_node_baseISE_EEEE, symObjAddr: 0x5638, symBinAddr: 0x100014410, symSize: 0xA4 }
  - { offsetInCU: 0xAA23, offset: 0x37075, size: 0x8, addend: 0x0, symName: __ZNKSt3__16__treeINS_12__value_typeI12PackedVertextEENS_19__map_value_compareIS2_S3_NS_4lessIS2_EELb1EEENS_9allocatorIS3_EEE6__rootB8ue170006Ev, symObjAddr: 0x56DC, symBinAddr: 0x1000144B4, symSize: 0x28 }
  - { offsetInCU: 0xAA47, offset: 0x37099, size: 0x8, addend: 0x0, symName: __ZNSt3__16__treeINS_12__value_typeI12PackedVertextEENS_19__map_value_compareIS2_S3_NS_4lessIS2_EELb1EEENS_9allocatorIS3_EEE10__end_nodeB8ue170006Ev, symObjAddr: 0x5704, symBinAddr: 0x1000144DC, symSize: 0x2C }
  - { offsetInCU: 0xAA6B, offset: 0x370BD, size: 0x8, addend: 0x0, symName: __ZNSt3__16__treeINS_12__value_typeI12PackedVertextEENS_19__map_value_compareIS2_S3_NS_4lessIS2_EELb1EEENS_9allocatorIS3_EEE3endB8ue170006Ev, symObjAddr: 0x5764, symBinAddr: 0x10001453C, symSize: 0x34 }
  - { offsetInCU: 0xAA8F, offset: 0x370E1, size: 0x8, addend: 0x0, symName: __ZNSt3__16__treeINS_12__value_typeI12PackedVertextEENS_19__map_value_compareIS2_S3_NS_4lessIS2_EELb1EEENS_9allocatorIS3_EEE10value_compB8ue170006Ev, symObjAddr: 0x5798, symBinAddr: 0x100014570, symSize: 0x28 }
  - { offsetInCU: 0xAAB3, offset: 0x37105, size: 0x8, addend: 0x0, symName: __ZNKSt3__119__map_value_compareI12PackedVertexNS_12__value_typeIS1_tEENS_4lessIS1_EELb1EEclB8ue170006ERKS1_RKS3_, symObjAddr: 0x57C0, symBinAddr: 0x100014598, symSize: 0x50 }
  - { offsetInCU: 0xAAF5, offset: 0x37147, size: 0x8, addend: 0x0, symName: __ZNKSt3__115__tree_iteratorINS_12__value_typeI12PackedVertextEEPNS_11__tree_nodeIS3_PvEElEdeB8ue170006Ev, symObjAddr: 0x5810, symBinAddr: 0x1000145E8, symSize: 0x28 }
  - { offsetInCU: 0xAB19, offset: 0x3716B, size: 0x8, addend: 0x0, symName: __ZNKSt3__119__map_value_compareI12PackedVertexNS_12__value_typeIS1_tEENS_4lessIS1_EELb1EEclB8ue170006ERKS3_RKS1_, symObjAddr: 0x5838, symBinAddr: 0x100014610, symSize: 0x48 }
  - { offsetInCU: 0xAB5C, offset: 0x371AE, size: 0x8, addend: 0x0, symName: __ZNSt3__115__tree_iteratorINS_12__value_typeI12PackedVertextEEPNS_11__tree_nodeIS3_PvEElEC1B8ue170006EPNS_15__tree_end_nodeIPNS_16__tree_node_baseIS5_EEEE, symObjAddr: 0x5880, symBinAddr: 0x100014658, symSize: 0x34 }
  - { offsetInCU: 0xAB92, offset: 0x371E4, size: 0x8, addend: 0x0, symName: __ZNKSt3__14lessI12PackedVertexEclB8ue170006ERKS1_S4_, symObjAddr: 0x58B4, symBinAddr: 0x10001468C, symSize: 0x48 }
  - { offsetInCU: 0xABD4, offset: 0x37226, size: 0x8, addend: 0x0, symName: __ZNKSt3__112__value_typeI12PackedVertextE11__get_valueB8ue170006Ev, symObjAddr: 0x58FC, symBinAddr: 0x1000146D4, symSize: 0x14 }
  - { offsetInCU: 0xABF8, offset: 0x3724A, size: 0x8, addend: 0x0, symName: __ZNK12PackedVertexltES_, symObjAddr: 0x5910, symBinAddr: 0x1000146E8, symSize: 0x3C }
  - { offsetInCU: 0xAC2C, offset: 0x3727E, size: 0x8, addend: 0x0, symName: __ZNSt3__115__tree_iteratorINS_12__value_typeI12PackedVertextEEPNS_11__tree_nodeIS3_PvEElEC2B8ue170006EPNS_15__tree_end_nodeIPNS_16__tree_node_baseIS5_EEEE, symObjAddr: 0x594C, symBinAddr: 0x100014724, symSize: 0x20 }
  - { offsetInCU: 0xAC62, offset: 0x372B4, size: 0x8, addend: 0x0, symName: __ZNKSt3__16__treeINS_12__value_typeI12PackedVertextEENS_19__map_value_compareIS2_S3_NS_4lessIS2_EELb1EEENS_9allocatorIS3_EEE10__end_nodeB8ue170006Ev, symObjAddr: 0x596C, symBinAddr: 0x100014744, symSize: 0x2C }
  - { offsetInCU: 0xAC87, offset: 0x372D9, size: 0x8, addend: 0x0, symName: __ZNSt3__114pointer_traitsIPNS_15__tree_end_nodeIPNS_16__tree_node_baseIPvEEEEE10pointer_toB8ue170006ERS6_, symObjAddr: 0x5998, symBinAddr: 0x100014770, symSize: 0x14 }
  - { offsetInCU: 0xACA8, offset: 0x372FA, size: 0x8, addend: 0x0, symName: __ZNKSt3__117__compressed_pairINS_15__tree_end_nodeIPNS_16__tree_node_baseIPvEEEENS_9allocatorINS_11__tree_nodeINS_12__value_typeI12PackedVertextEES3_EEEEE5firstB8ue170006Ev, symObjAddr: 0x59AC, symBinAddr: 0x100014784, symSize: 0x24 }
  - { offsetInCU: 0xACCC, offset: 0x3731E, size: 0x8, addend: 0x0, symName: __ZNKSt3__122__compressed_pair_elemINS_15__tree_end_nodeIPNS_16__tree_node_baseIPvEEEELi0ELb0EE5__getB8ue170006Ev, symObjAddr: 0x59D0, symBinAddr: 0x1000147A8, symSize: 0x14 }
  - { offsetInCU: 0xACF0, offset: 0x37342, size: 0x8, addend: 0x0, symName: __ZNSt3__117__compressed_pairINS_15__tree_end_nodeIPNS_16__tree_node_baseIPvEEEENS_9allocatorINS_11__tree_nodeINS_12__value_typeI12PackedVertextEES3_EEEEE5firstB8ue170006Ev, symObjAddr: 0x59E4, symBinAddr: 0x1000147BC, symSize: 0x24 }
  - { offsetInCU: 0xAD14, offset: 0x37366, size: 0x8, addend: 0x0, symName: __ZNSt3__122__compressed_pair_elemINS_15__tree_end_nodeIPNS_16__tree_node_baseIPvEEEELi0ELb0EE5__getB8ue170006Ev, symObjAddr: 0x5A08, symBinAddr: 0x1000147E0, symSize: 0x14 }
  - { offsetInCU: 0xAD38, offset: 0x3738A, size: 0x8, addend: 0x0, symName: __ZNSt3__117__compressed_pairImNS_19__map_value_compareI12PackedVertexNS_12__value_typeIS2_tEENS_4lessIS2_EELb1EEEE6secondB8ue170006Ev, symObjAddr: 0x5A4C, symBinAddr: 0x100014824, symSize: 0x24 }
  - { offsetInCU: 0xAD5C, offset: 0x373AE, size: 0x8, addend: 0x0, symName: __ZNSt3__122__compressed_pair_elemINS_19__map_value_compareI12PackedVertexNS_12__value_typeIS2_tEENS_4lessIS2_EELb1EEELi1ELb1EE5__getB8ue170006Ev, symObjAddr: 0x5A70, symBinAddr: 0x100014848, symSize: 0x14 }
  - { offsetInCU: 0xAD80, offset: 0x373D2, size: 0x8, addend: 0x0, symName: __ZNKSt3__115__tree_iteratorINS_12__value_typeI12PackedVertextEEPNS_11__tree_nodeIS3_PvEElE8__get_npB8ue170006Ev, symObjAddr: 0x5A84, symBinAddr: 0x10001485C, symSize: 0x18 }
  - { offsetInCU: 0xADA5, offset: 0x373F7, size: 0x8, addend: 0x0, symName: __ZNSt3__114__map_iteratorINS_15__tree_iteratorINS_12__value_typeI12PackedVertextEEPNS_11__tree_nodeIS4_PvEElEEEC2B8ue170006ES9_, symObjAddr: 0x5A9C, symBinAddr: 0x100014874, symSize: 0x20 }
  - { offsetInCU: 0xADDC, offset: 0x3742E, size: 0x8, addend: 0x0, symName: __ZNSt3__114pointer_traitsIPNS_4pairIK12PackedVertextEEE10pointer_toB8ue170006ERS4_, symObjAddr: 0x5ABC, symBinAddr: 0x100014894, symSize: 0x14 }
  - { offsetInCU: 0xADFD, offset: 0x3744F, size: 0x8, addend: 0x0, symName: __ZNKSt3__115__tree_iteratorINS_12__value_typeI12PackedVertextEEPNS_11__tree_nodeIS3_PvEElEptB8ue170006Ev, symObjAddr: 0x5AD0, symBinAddr: 0x1000148A8, symSize: 0x2C }
  - { offsetInCU: 0xAE21, offset: 0x37473, size: 0x8, addend: 0x0, symName: __ZNSt3__112__value_typeI12PackedVertextE11__get_valueB8ue170006Ev, symObjAddr: 0x5AFC, symBinAddr: 0x1000148D4, symSize: 0x14 }
  - { offsetInCU: 0xAE46, offset: 0x37498, size: 0x8, addend: 0x0, symName: __ZNSt3__114pointer_traitsIPNS_12__value_typeI12PackedVertextEEE10pointer_toB8ue170006ERS3_, symObjAddr: 0x5B10, symBinAddr: 0x1000148E8, symSize: 0x14 }
  - { offsetInCU: 0xAE68, offset: 0x374BA, size: 0x8, addend: 0x0, symName: __ZNSt3__13mapI12PackedVertextNS_4lessIS1_EENS_9allocatorINS_4pairIKS1_tEEEEEC2B8ue170006Ev, symObjAddr: 0x5B24, symBinAddr: 0x1000148FC, symSize: 0x40 }
  - { offsetInCU: 0xAE90, offset: 0x374E2, size: 0x8, addend: 0x0, symName: __ZNSt3__119__map_value_compareI12PackedVertexNS_12__value_typeIS1_tEENS_4lessIS1_EELb1EEC1B8ue170006ES5_, symObjAddr: 0x5B64, symBinAddr: 0x10001493C, symSize: 0x2C }
  - { offsetInCU: 0xAEC7, offset: 0x37519, size: 0x8, addend: 0x0, symName: __ZNSt3__16__treeINS_12__value_typeI12PackedVertextEENS_19__map_value_compareIS2_S3_NS_4lessIS2_EELb1EEENS_9allocatorIS3_EEEC1ERKS7_, symObjAddr: 0x5B90, symBinAddr: 0x100014968, symSize: 0x34 }
  - { offsetInCU: 0xAF01, offset: 0x37553, size: 0x8, addend: 0x0, symName: __ZNSt3__119__map_value_compareI12PackedVertexNS_12__value_typeIS1_tEENS_4lessIS1_EELb1EEC2B8ue170006ES5_, symObjAddr: 0x5BC4, symBinAddr: 0x10001499C, symSize: 0x14 }
  - { offsetInCU: 0xAF38, offset: 0x3758A, size: 0x8, addend: 0x0, symName: __ZNSt3__16__treeINS_12__value_typeI12PackedVertextEENS_19__map_value_compareIS2_S3_NS_4lessIS2_EELb1EEENS_9allocatorIS3_EEEC2ERKS7_, symObjAddr: 0x5BD8, symBinAddr: 0x1000149B0, symSize: 0x7C }
  - { offsetInCU: 0xAF72, offset: 0x375C4, size: 0x8, addend: 0x0, symName: __ZNSt3__117__compressed_pairINS_15__tree_end_nodeIPNS_16__tree_node_baseIPvEEEENS_9allocatorINS_11__tree_nodeINS_12__value_typeI12PackedVertextEES3_EEEEEC1B8ue170006ILb1EvEEv, symObjAddr: 0x5C54, symBinAddr: 0x100014A2C, symSize: 0x2C }
  - { offsetInCU: 0xAFAA, offset: 0x375FC, size: 0x8, addend: 0x0, symName: __ZNSt3__117__compressed_pairImNS_19__map_value_compareI12PackedVertexNS_12__value_typeIS2_tEENS_4lessIS2_EELb1EEEEC1B8ue170006IiRKS7_EEOT_OT0_, symObjAddr: 0x5C80, symBinAddr: 0x100014A58, symSize: 0x3C }
  - { offsetInCU: 0xAFFF, offset: 0x37651, size: 0x8, addend: 0x0, symName: __ZNSt3__16__treeINS_12__value_typeI12PackedVertextEENS_19__map_value_compareIS2_S3_NS_4lessIS2_EELb1EEENS_9allocatorIS3_EEE12__begin_nodeB8ue170006Ev, symObjAddr: 0x5CBC, symBinAddr: 0x100014A94, symSize: 0x14 }
  - { offsetInCU: 0xB024, offset: 0x37676, size: 0x8, addend: 0x0, symName: __ZNSt3__117__compressed_pairINS_15__tree_end_nodeIPNS_16__tree_node_baseIPvEEEENS_9allocatorINS_11__tree_nodeINS_12__value_typeI12PackedVertextEES3_EEEEEC2B8ue170006ILb1EvEEv, symObjAddr: 0x5CD0, symBinAddr: 0x100014AA8, symSize: 0x34 }
  - { offsetInCU: 0xB057, offset: 0x376A9, size: 0x8, addend: 0x0, symName: __ZNSt3__122__compressed_pair_elemINS_15__tree_end_nodeIPNS_16__tree_node_baseIPvEEEELi0ELb0EEC2B8ue170006ENS_16__value_init_tagE, symObjAddr: 0x5D04, symBinAddr: 0x100014ADC, symSize: 0x2C }
  - { offsetInCU: 0xB089, offset: 0x376DB, size: 0x8, addend: 0x0, symName: __ZNSt3__122__compressed_pair_elemINS_9allocatorINS_11__tree_nodeINS_12__value_typeI12PackedVertextEEPvEEEELi1ELb1EEC2B8ue170006ENS_16__value_init_tagE, symObjAddr: 0x5D30, symBinAddr: 0x100014B08, symSize: 0x2C }
  - { offsetInCU: 0xB0BB, offset: 0x3770D, size: 0x8, addend: 0x0, symName: __ZNSt3__115__tree_end_nodeIPNS_16__tree_node_baseIPvEEEC1B8ue170006Ev, symObjAddr: 0x5D5C, symBinAddr: 0x100014B34, symSize: 0x2C }
  - { offsetInCU: 0xB0E3, offset: 0x37735, size: 0x8, addend: 0x0, symName: __ZNSt3__115__tree_end_nodeIPNS_16__tree_node_baseIPvEEEC2B8ue170006Ev, symObjAddr: 0x5D88, symBinAddr: 0x100014B60, symSize: 0x18 }
  - { offsetInCU: 0xB10B, offset: 0x3775D, size: 0x8, addend: 0x0, symName: __ZNSt3__19allocatorINS_11__tree_nodeINS_12__value_typeI12PackedVertextEEPvEEEC2B8ue170006Ev, symObjAddr: 0x5DA0, symBinAddr: 0x100014B78, symSize: 0x2C }
  - { offsetInCU: 0xB133, offset: 0x37785, size: 0x8, addend: 0x0, symName: __ZNSt3__116__non_trivial_ifILb1ENS_9allocatorINS_11__tree_nodeINS_12__value_typeI12PackedVertextEEPvEEEEEC2B8ue170006Ev, symObjAddr: 0x5DCC, symBinAddr: 0x100014BA4, symSize: 0x14 }
  - { offsetInCU: 0xB15B, offset: 0x377AD, size: 0x8, addend: 0x0, symName: __ZNSt3__117__compressed_pairImNS_19__map_value_compareI12PackedVertexNS_12__value_typeIS2_tEENS_4lessIS2_EELb1EEEEC2B8ue170006IiRKS7_EEOT_OT0_, symObjAddr: 0x5DE0, symBinAddr: 0x100014BB8, symSize: 0x44 }
  - { offsetInCU: 0xB1B1, offset: 0x37803, size: 0x8, addend: 0x0, symName: __ZNSt3__122__compressed_pair_elemImLi0ELb0EEC2B8ue170006IivEEOT_, symObjAddr: 0x5E24, symBinAddr: 0x100014BFC, symSize: 0x24 }
  - { offsetInCU: 0xB1F1, offset: 0x37843, size: 0x8, addend: 0x0, symName: __ZNSt3__122__compressed_pair_elemINS_19__map_value_compareI12PackedVertexNS_12__value_typeIS2_tEENS_4lessIS2_EELb1EEELi1ELb1EEC2B8ue170006IRKS7_vEEOT_, symObjAddr: 0x5E48, symBinAddr: 0x100014C20, symSize: 0x18 }
  - { offsetInCU: 0xB231, offset: 0x37883, size: 0x8, addend: 0x0, symName: __ZNSt3__13mapI12PackedVertextNS_4lessIS1_EENS_9allocatorINS_4pairIKS1_tEEEEED2B8ue170006Ev, symObjAddr: 0x5E60, symBinAddr: 0x100014C38, symSize: 0x2C }
  - { offsetInCU: 0xB259, offset: 0x378AB, size: 0x8, addend: 0x0, symName: __ZNSt3__16__treeINS_12__value_typeI12PackedVertextEENS_19__map_value_compareIS2_S3_NS_4lessIS2_EELb1EEENS_9allocatorIS3_EEED1Ev, symObjAddr: 0x5E8C, symBinAddr: 0x100014C64, symSize: 0x2C }
  - { offsetInCU: 0xB284, offset: 0x378D6, size: 0x8, addend: 0x0, symName: __ZNSt3__16__treeINS_12__value_typeI12PackedVertextEENS_19__map_value_compareIS2_S3_NS_4lessIS2_EELb1EEENS_9allocatorIS3_EEED2Ev, symObjAddr: 0x5EB8, symBinAddr: 0x100014C90, symSize: 0x38 }
  - { offsetInCU: 0xB2AE, offset: 0x37900, size: 0x8, addend: 0x0, symName: __ZNSt3__16__treeINS_12__value_typeI12PackedVertextEENS_19__map_value_compareIS2_S3_NS_4lessIS2_EELb1EEENS_9allocatorIS3_EEE7destroyEPNS_11__tree_nodeIS3_PvEE, symObjAddr: 0x5EF0, symBinAddr: 0x100014CC8, symSize: 0xAC }
  - { offsetInCU: 0xB2F9, offset: 0x3794B, size: 0x8, addend: 0x0, symName: __ZNSt3__16__treeINS_12__value_typeI12PackedVertextEENS_19__map_value_compareIS2_S3_NS_4lessIS2_EELb1EEENS_9allocatorIS3_EEE12__node_allocB8ue170006Ev, symObjAddr: 0x5F9C, symBinAddr: 0x100014D74, symSize: 0x28 }
  - { offsetInCU: 0xB31E, offset: 0x37970, size: 0x8, addend: 0x0, symName: __ZNSt3__116allocator_traitsINS_9allocatorINS_11__tree_nodeINS_12__value_typeI12PackedVertextEEPvEEEEE7destroyB8ue170006INS_4pairIKS4_tEEvvEEvRS8_PT_, symObjAddr: 0x5FC4, symBinAddr: 0x100014D9C, symSize: 0x14 }
  - { offsetInCU: 0xB357, offset: 0x379A9, size: 0x8, addend: 0x0, symName: __ZNSt3__122__tree_key_value_typesINS_12__value_typeI12PackedVertextEEE9__get_ptrB8ue170006ERS3_, symObjAddr: 0x5FD8, symBinAddr: 0x100014DB0, symSize: 0x24 }
  - { offsetInCU: 0xB37A, offset: 0x379CC, size: 0x8, addend: 0x0, symName: __ZNSt3__116allocator_traitsINS_9allocatorINS_11__tree_nodeINS_12__value_typeI12PackedVertextEEPvEEEEE10deallocateB8ue170006ERS8_PS7_m, symObjAddr: 0x5FFC, symBinAddr: 0x100014DD4, symSize: 0x34 }
  - { offsetInCU: 0xB3BA, offset: 0x37A0C, size: 0x8, addend: 0x0, symName: __ZNSt3__117__compressed_pairINS_15__tree_end_nodeIPNS_16__tree_node_baseIPvEEEENS_9allocatorINS_11__tree_nodeINS_12__value_typeI12PackedVertextEES3_EEEEE6secondB8ue170006Ev, symObjAddr: 0x6030, symBinAddr: 0x100014E08, symSize: 0x24 }
  - { offsetInCU: 0xB3DE, offset: 0x37A30, size: 0x8, addend: 0x0, symName: __ZNSt3__122__compressed_pair_elemINS_9allocatorINS_11__tree_nodeINS_12__value_typeI12PackedVertextEEPvEEEELi1ELb1EE5__getB8ue170006Ev, symObjAddr: 0x6054, symBinAddr: 0x100014E2C, symSize: 0x14 }
  - { offsetInCU: 0xB402, offset: 0x37A54, size: 0x8, addend: 0x0, symName: __ZNSt3__19allocatorINS_11__tree_nodeINS_12__value_typeI12PackedVertextEEPvEEE10deallocateB8ue170006EPS6_m, symObjAddr: 0x6068, symBinAddr: 0x100014E40, symSize: 0x40 }
  - { offsetInCU: 0xB456, offset: 0x37AA8, size: 0x8, addend: 0x0, symName: __ZNSt3__16__treeINS_12__value_typeI12PackedVertextEENS_19__map_value_compareIS2_S3_NS_4lessIS2_EELb1EEENS_9allocatorIS3_EEE25__emplace_unique_key_argsIS2_JRKNS_21piecewise_construct_tENS_5tupleIJRKS2_EEENSF_IJEEEEEENS_4pairINS_15__tree_iteratorIS3_PNS_11__tree_nodeIS3_PvEElEEbEERKT_DpOT0_, symObjAddr: 0x60A8, symBinAddr: 0x100014E80, symSize: 0x100 }
  - { offsetInCU: 0xB52B, offset: 0x37B7D, size: 0x8, addend: 0x0, symName: __ZNSt3__16__treeINS_12__value_typeI12PackedVertextEENS_19__map_value_compareIS2_S3_NS_4lessIS2_EELb1EEENS_9allocatorIS3_EEE12__find_equalIS2_EERPNS_16__tree_node_baseIPvEERPNS_15__tree_end_nodeISF_EERKT_, symObjAddr: 0x61D8, symBinAddr: 0x100014FB0, symSize: 0x184 }
  - { offsetInCU: 0xB597, offset: 0x37BE9, size: 0x8, addend: 0x0, symName: __ZNSt3__16__treeINS_12__value_typeI12PackedVertextEENS_19__map_value_compareIS2_S3_NS_4lessIS2_EELb1EEENS_9allocatorIS3_EEE16__construct_nodeIJRKNS_21piecewise_construct_tENS_5tupleIJRKS2_EEENSF_IJEEEEEENS_10unique_ptrINS_11__tree_nodeIS3_PvEENS_22__tree_node_destructorINS8_ISN_EEEEEEDpOT_, symObjAddr: 0x635C, symBinAddr: 0x100015134, symSize: 0x118 }
  - { offsetInCU: 0xB61F, offset: 0x37C71, size: 0x8, addend: 0x0, symName: __ZNSt3__16__treeINS_12__value_typeI12PackedVertextEENS_19__map_value_compareIS2_S3_NS_4lessIS2_EELb1EEENS_9allocatorIS3_EEE16__insert_node_atEPNS_15__tree_end_nodeIPNS_16__tree_node_baseIPvEEEERSF_SF_, symObjAddr: 0x6474, symBinAddr: 0x10001524C, symSize: 0xCC }
  - { offsetInCU: 0xB673, offset: 0x37CC5, size: 0x8, addend: 0x0, symName: __ZNKSt3__110unique_ptrINS_11__tree_nodeINS_12__value_typeI12PackedVertextEEPvEENS_22__tree_node_destructorINS_9allocatorIS6_EEEEE3getB8ue170006Ev, symObjAddr: 0x6540, symBinAddr: 0x100015318, symSize: 0x28 }
  - { offsetInCU: 0xB697, offset: 0x37CE9, size: 0x8, addend: 0x0, symName: __ZNSt3__110unique_ptrINS_11__tree_nodeINS_12__value_typeI12PackedVertextEEPvEENS_22__tree_node_destructorINS_9allocatorIS6_EEEEE7releaseB8ue170006Ev, symObjAddr: 0x6568, symBinAddr: 0x100015340, symSize: 0x44 }
  - { offsetInCU: 0xB6CB, offset: 0x37D1D, size: 0x8, addend: 0x0, symName: __ZNSt3__110unique_ptrINS_11__tree_nodeINS_12__value_typeI12PackedVertextEEPvEENS_22__tree_node_destructorINS_9allocatorIS6_EEEEED1B8ue170006Ev, symObjAddr: 0x65AC, symBinAddr: 0x100015384, symSize: 0x2C }
  - { offsetInCU: 0xB6F3, offset: 0x37D45, size: 0x8, addend: 0x0, symName: __ZNSt3__115__tree_iteratorINS_12__value_typeI12PackedVertextEEPNS_11__tree_nodeIS3_PvEElEC1B8ue170006ES7_, symObjAddr: 0x65D8, symBinAddr: 0x1000153B0, symSize: 0x34 }
  - { offsetInCU: 0xB734, offset: 0x37D86, size: 0x8, addend: 0x0, symName: __ZNSt3__14pairINS_15__tree_iteratorINS_12__value_typeI12PackedVertextEEPNS_11__tree_nodeIS4_PvEElEEbEC1B8ue170006IS9_RbLS6_0EEEOT_OT0_, symObjAddr: 0x660C, symBinAddr: 0x1000153E4, symSize: 0x3C }
  - { offsetInCU: 0xB78F, offset: 0x37DE1, size: 0x8, addend: 0x0, symName: __ZNKSt3__16__treeINS_12__value_typeI12PackedVertextEENS_19__map_value_compareIS2_S3_NS_4lessIS2_EELb1EEENS_9allocatorIS3_EEE10__root_ptrB8ue170006Ev, symObjAddr: 0x6648, symBinAddr: 0x100015420, symSize: 0x24 }
  - { offsetInCU: 0xB7B4, offset: 0x37E06, size: 0x8, addend: 0x0, symName: __ZNSt3__116allocator_traitsINS_9allocatorINS_11__tree_nodeINS_12__value_typeI12PackedVertextEEPvEEEEE8allocateB8ue170006ERS8_m, symObjAddr: 0x666C, symBinAddr: 0x100015444, symSize: 0x2C }
  - { offsetInCU: 0xB7E6, offset: 0x37E38, size: 0x8, addend: 0x0, symName: __ZNSt3__122__tree_node_destructorINS_9allocatorINS_11__tree_nodeINS_12__value_typeI12PackedVertextEEPvEEEEEC1B8ue170006ERS8_b, symObjAddr: 0x6698, symBinAddr: 0x100015470, symSize: 0x48 }
  - { offsetInCU: 0xB831, offset: 0x37E83, size: 0x8, addend: 0x0, symName: __ZNSt3__110unique_ptrINS_11__tree_nodeINS_12__value_typeI12PackedVertextEEPvEENS_22__tree_node_destructorINS_9allocatorIS6_EEEEEC1B8ue170006ILb1EvEEPS6_NS_16__dependent_typeINS_27__unique_ptr_deleter_sfinaeISA_EEXT_EE20__good_rval_ref_typeE, symObjAddr: 0x66E0, symBinAddr: 0x1000154B8, symSize: 0x3C }
  - { offsetInCU: 0xB880, offset: 0x37ED2, size: 0x8, addend: 0x0, symName: __ZNSt3__116allocator_traitsINS_9allocatorINS_11__tree_nodeINS_12__value_typeI12PackedVertextEEPvEEEEE9constructB8ue170006INS_4pairIKS4_tEEJRKNS_21piecewise_construct_tENS_5tupleIJRSC_EEENSH_IJEEEEvEEvRS8_PT_DpOT0_, symObjAddr: 0x671C, symBinAddr: 0x1000154F4, symSize: 0x44 }
  - { offsetInCU: 0xB8FD, offset: 0x37F4F, size: 0x8, addend: 0x0, symName: __ZNKSt3__110unique_ptrINS_11__tree_nodeINS_12__value_typeI12PackedVertextEEPvEENS_22__tree_node_destructorINS_9allocatorIS6_EEEEEptB8ue170006Ev, symObjAddr: 0x6760, symBinAddr: 0x100015538, symSize: 0x28 }
  - { offsetInCU: 0xB921, offset: 0x37F73, size: 0x8, addend: 0x0, symName: __ZNSt3__110unique_ptrINS_11__tree_nodeINS_12__value_typeI12PackedVertextEEPvEENS_22__tree_node_destructorINS_9allocatorIS6_EEEEE11get_deleterB8ue170006Ev, symObjAddr: 0x6788, symBinAddr: 0x100015560, symSize: 0x24 }
  - { offsetInCU: 0xB945, offset: 0x37F97, size: 0x8, addend: 0x0, symName: __ZNSt3__19allocatorINS_11__tree_nodeINS_12__value_typeI12PackedVertextEEPvEEE8allocateB8ue170006Em, symObjAddr: 0x67AC, symBinAddr: 0x100015584, symSize: 0x58 }
  - { offsetInCU: 0xB982, offset: 0x37FD4, size: 0x8, addend: 0x0, symName: __ZNSt3__116allocator_traitsINS_9allocatorINS_11__tree_nodeINS_12__value_typeI12PackedVertextEEPvEEEEE8max_sizeB8ue170006IS8_vEEmRKS8_, symObjAddr: 0x6804, symBinAddr: 0x1000155DC, symSize: 0x24 }
  - { offsetInCU: 0xB9AE, offset: 0x38000, size: 0x8, addend: 0x0, symName: __ZNKSt3__19allocatorINS_11__tree_nodeINS_12__value_typeI12PackedVertextEEPvEEE8max_sizeB8ue170006Ev, symObjAddr: 0x6828, symBinAddr: 0x100015600, symSize: 0x14 }
  - { offsetInCU: 0xB9D3, offset: 0x38025, size: 0x8, addend: 0x0, symName: __ZNSt3__122__tree_node_destructorINS_9allocatorINS_11__tree_nodeINS_12__value_typeI12PackedVertextEEPvEEEEEC2B8ue170006ERS8_b, symObjAddr: 0x683C, symBinAddr: 0x100015614, symSize: 0x38 }
  - { offsetInCU: 0xBA19, offset: 0x3806B, size: 0x8, addend: 0x0, symName: __ZNSt3__110unique_ptrINS_11__tree_nodeINS_12__value_typeI12PackedVertextEEPvEENS_22__tree_node_destructorINS_9allocatorIS6_EEEEEC2B8ue170006ILb1EvEEPS6_NS_16__dependent_typeINS_27__unique_ptr_deleter_sfinaeISA_EEXT_EE20__good_rval_ref_typeE, symObjAddr: 0x6874, symBinAddr: 0x10001564C, symSize: 0x48 }
  - { offsetInCU: 0xBA68, offset: 0x380BA, size: 0x8, addend: 0x0, symName: __ZNSt3__117__compressed_pairIPNS_11__tree_nodeINS_12__value_typeI12PackedVertextEEPvEENS_22__tree_node_destructorINS_9allocatorIS6_EEEEEC1B8ue170006IRS7_SB_EEOT_OT0_, symObjAddr: 0x68BC, symBinAddr: 0x100015694, symSize: 0x3C }
  - { offsetInCU: 0xBABE, offset: 0x38110, size: 0x8, addend: 0x0, symName: __ZNSt3__117__compressed_pairIPNS_11__tree_nodeINS_12__value_typeI12PackedVertextEEPvEENS_22__tree_node_destructorINS_9allocatorIS6_EEEEEC2B8ue170006IRS7_SB_EEOT_OT0_, symObjAddr: 0x68F8, symBinAddr: 0x1000156D0, symSize: 0x48 }
  - { offsetInCU: 0xBB14, offset: 0x38166, size: 0x8, addend: 0x0, symName: __ZNSt3__122__compressed_pair_elemIPNS_11__tree_nodeINS_12__value_typeI12PackedVertextEEPvEELi0ELb0EEC2B8ue170006IRS7_vEEOT_, symObjAddr: 0x6940, symBinAddr: 0x100015718, symSize: 0x24 }
  - { offsetInCU: 0xBB54, offset: 0x381A6, size: 0x8, addend: 0x0, symName: __ZNSt3__122__compressed_pair_elemINS_22__tree_node_destructorINS_9allocatorINS_11__tree_nodeINS_12__value_typeI12PackedVertextEEPvEEEEEELi1ELb0EEC2B8ue170006ISA_vEEOT_, symObjAddr: 0x6964, symBinAddr: 0x10001573C, symSize: 0x24 }
  - { offsetInCU: 0xBB93, offset: 0x381E5, size: 0x8, addend: 0x0, symName: __ZNSt3__19allocatorINS_11__tree_nodeINS_12__value_typeI12PackedVertextEEPvEEE9constructB8ue170006INS_4pairIKS3_tEEJRKNS_21piecewise_construct_tENS_5tupleIJRSA_EEENSF_IJEEEEEEvPT_DpOT0_, symObjAddr: 0x6988, symBinAddr: 0x100015760, symSize: 0x44 }
  - { offsetInCU: 0xBC0E, offset: 0x38260, size: 0x8, addend: 0x0, symName: __ZNSt3__14pairIK12PackedVertextEC1B8ue170006IJRS2_EJEEENS_21piecewise_construct_tENS_5tupleIJDpT_EEENS7_IJDpT0_EEE, symObjAddr: 0x69CC, symBinAddr: 0x1000157A4, symSize: 0x44 }
  - { offsetInCU: 0xBC73, offset: 0x382C5, size: 0x8, addend: 0x0, symName: __ZNSt3__14pairIK12PackedVertextEC1B8ue170006IJRS2_EJEJLm0EEJEEENS_21piecewise_construct_tERNS_5tupleIJDpT_EEERNS7_IJDpT0_EEENS_15__tuple_indicesIJXspT1_EEEENSG_IJXspT2_EEEE, symObjAddr: 0x6A10, symBinAddr: 0x1000157E8, symSize: 0x3C }
  - { offsetInCU: 0xBCFF, offset: 0x38351, size: 0x8, addend: 0x0, symName: __ZNSt3__14pairIK12PackedVertextEC2B8ue170006IJRS2_EJEJLm0EEJEEENS_21piecewise_construct_tERNS_5tupleIJDpT_EEERNS7_IJDpT0_EEENS_15__tuple_indicesIJXspT1_EEEENSG_IJXspT2_EEEE, symObjAddr: 0x6A4C, symBinAddr: 0x100015824, symSize: 0x50 }
  - { offsetInCU: 0xBD8A, offset: 0x383DC, size: 0x8, addend: 0x0, symName: __ZNSt3__112__tuple_leafILm0ERK12PackedVertexLb0EE3getB8ue170006Ev, symObjAddr: 0x6AC0, symBinAddr: 0x100015898, symSize: 0x18 }
  - { offsetInCU: 0xBDAE, offset: 0x38400, size: 0x8, addend: 0x0, symName: __ZNKSt3__117__compressed_pairIPNS_11__tree_nodeINS_12__value_typeI12PackedVertextEEPvEENS_22__tree_node_destructorINS_9allocatorIS6_EEEEE5firstB8ue170006Ev, symObjAddr: 0x6AD8, symBinAddr: 0x1000158B0, symSize: 0x24 }
  - { offsetInCU: 0xBDD2, offset: 0x38424, size: 0x8, addend: 0x0, symName: __ZNKSt3__122__compressed_pair_elemIPNS_11__tree_nodeINS_12__value_typeI12PackedVertextEEPvEELi0ELb0EE5__getB8ue170006Ev, symObjAddr: 0x6AFC, symBinAddr: 0x1000158D4, symSize: 0x14 }
  - { offsetInCU: 0xBDF6, offset: 0x38448, size: 0x8, addend: 0x0, symName: __ZNSt3__117__compressed_pairIPNS_11__tree_nodeINS_12__value_typeI12PackedVertextEEPvEENS_22__tree_node_destructorINS_9allocatorIS6_EEEEE6secondB8ue170006Ev, symObjAddr: 0x6B10, symBinAddr: 0x1000158E8, symSize: 0x28 }
  - { offsetInCU: 0xBE1A, offset: 0x3846C, size: 0x8, addend: 0x0, symName: __ZNSt3__122__compressed_pair_elemINS_22__tree_node_destructorINS_9allocatorINS_11__tree_nodeINS_12__value_typeI12PackedVertextEEPvEEEEEELi1ELb0EE5__getB8ue170006Ev, symObjAddr: 0x6B38, symBinAddr: 0x100015910, symSize: 0x14 }
  - { offsetInCU: 0xBE3E, offset: 0x38490, size: 0x8, addend: 0x0, symName: __ZNSt3__16__treeINS_12__value_typeI12PackedVertextEENS_19__map_value_compareIS2_S3_NS_4lessIS2_EELb1EEENS_9allocatorIS3_EEE4sizeB8ue170006Ev, symObjAddr: 0x6E78, symBinAddr: 0x100015C50, symSize: 0x28 }
  - { offsetInCU: 0xBE62, offset: 0x384B4, size: 0x8, addend: 0x0, symName: __ZNKSt3__116__tree_node_baseIPvE15__parent_unsafeB8ue170006Ev, symObjAddr: 0x6EA0, symBinAddr: 0x100015C78, symSize: 0x18 }
  - { offsetInCU: 0xBE86, offset: 0x384D8, size: 0x8, addend: 0x0, symName: __ZNSt3__116__tree_node_baseIPvE12__set_parentB8ue170006EPS2_, symObjAddr: 0x7088, symBinAddr: 0x100015E60, symSize: 0x20 }
  - { offsetInCU: 0xBEB9, offset: 0x3850B, size: 0x8, addend: 0x0, symName: __ZNSt3__117__compressed_pairImNS_19__map_value_compareI12PackedVertexNS_12__value_typeIS2_tEENS_4lessIS2_EELb1EEEE5firstB8ue170006Ev, symObjAddr: 0x70A8, symBinAddr: 0x100015E80, symSize: 0x24 }
  - { offsetInCU: 0xBEDD, offset: 0x3852F, size: 0x8, addend: 0x0, symName: __ZNSt3__122__compressed_pair_elemImLi0ELb0EE5__getB8ue170006Ev, symObjAddr: 0x70CC, symBinAddr: 0x100015EA4, symSize: 0x14 }
  - { offsetInCU: 0xBF01, offset: 0x38553, size: 0x8, addend: 0x0, symName: __ZNSt3__117__compressed_pairIPNS_11__tree_nodeINS_12__value_typeI12PackedVertextEEPvEENS_22__tree_node_destructorINS_9allocatorIS6_EEEEE5firstB8ue170006Ev, symObjAddr: 0x70E0, symBinAddr: 0x100015EB8, symSize: 0x24 }
  - { offsetInCU: 0xBF25, offset: 0x38577, size: 0x8, addend: 0x0, symName: __ZNSt3__122__compressed_pair_elemIPNS_11__tree_nodeINS_12__value_typeI12PackedVertextEEPvEELi0ELb0EE5__getB8ue170006Ev, symObjAddr: 0x7104, symBinAddr: 0x100015EDC, symSize: 0x14 }
  - { offsetInCU: 0xBF4A, offset: 0x3859C, size: 0x8, addend: 0x0, symName: __ZNSt3__110unique_ptrINS_11__tree_nodeINS_12__value_typeI12PackedVertextEEPvEENS_22__tree_node_destructorINS_9allocatorIS6_EEEEED2B8ue170006Ev, symObjAddr: 0x7118, symBinAddr: 0x100015EF0, symSize: 0x30 }
  - { offsetInCU: 0xBF71, offset: 0x385C3, size: 0x8, addend: 0x0, symName: __ZNSt3__110unique_ptrINS_11__tree_nodeINS_12__value_typeI12PackedVertextEEPvEENS_22__tree_node_destructorINS_9allocatorIS6_EEEEE5resetB8ue170006EPS6_, symObjAddr: 0x7148, symBinAddr: 0x100015F20, symSize: 0x78 }
  - { offsetInCU: 0xBFB3, offset: 0x38605, size: 0x8, addend: 0x0, symName: __ZNSt3__122__tree_node_destructorINS_9allocatorINS_11__tree_nodeINS_12__value_typeI12PackedVertextEEPvEEEEEclB8ue170006EPS7_, symObjAddr: 0x71C0, symBinAddr: 0x100015F98, symSize: 0x88 }
  - { offsetInCU: 0xBFE7, offset: 0x38639, size: 0x8, addend: 0x0, symName: __ZNSt3__115__tree_iteratorINS_12__value_typeI12PackedVertextEEPNS_11__tree_nodeIS3_PvEElEC2B8ue170006ES7_, symObjAddr: 0x7248, symBinAddr: 0x100016020, symSize: 0x20 }
  - { offsetInCU: 0xC01E, offset: 0x38670, size: 0x8, addend: 0x0, symName: __ZNSt3__14pairINS_15__tree_iteratorINS_12__value_typeI12PackedVertextEEPNS_11__tree_nodeIS4_PvEElEEbEC2B8ue170006IS9_RbLS6_0EEEOT_OT0_, symObjAddr: 0x7268, symBinAddr: 0x100016040, symSize: 0x38 }
  - { offsetInCU: 0xC07A, offset: 0x386CC, size: 0x8, addend: 0x0, symName: __ZNSt3__15tupleIJRK12PackedVertexEEC1B8ue170006INS_4_AndELi0EEES3_, symObjAddr: 0x72A0, symBinAddr: 0x100016078, symSize: 0x34 }
  - { offsetInCU: 0xC0C2, offset: 0x38714, size: 0x8, addend: 0x0, symName: __ZNSt3__15tupleIJRK12PackedVertexEEC2B8ue170006INS_4_AndELi0EEES3_, symObjAddr: 0x72D4, symBinAddr: 0x1000160AC, symSize: 0x34 }
  - { offsetInCU: 0xC10A, offset: 0x3875C, size: 0x8, addend: 0x0, symName: __ZNSt3__112__tuple_implINS_15__tuple_indicesIJLm0EEEEJRK12PackedVertexEEC1B8ue170006IJLm0EEJS5_EJEJEJS5_EEENS1_IJXspT_EEEENS_13__tuple_typesIJDpT0_EEENS1_IJXspT1_EEEENS9_IJDpT2_EEEDpOT3_, symObjAddr: 0x7308, symBinAddr: 0x1000160E0, symSize: 0x34 }
  - { offsetInCU: 0xC199, offset: 0x387EB, size: 0x8, addend: 0x0, symName: __ZNSt3__112__tuple_implINS_15__tuple_indicesIJLm0EEEEJRK12PackedVertexEEC2B8ue170006IJLm0EEJS5_EJEJEJS5_EEENS1_IJXspT_EEEENS_13__tuple_typesIJDpT0_EEENS1_IJXspT1_EEEENS9_IJDpT2_EEEDpOT3_, symObjAddr: 0x733C, symBinAddr: 0x100016114, symSize: 0x34 }
  - { offsetInCU: 0xC228, offset: 0x3887A, size: 0x8, addend: 0x0, symName: __ZNSt3__112__tuple_leafILm0ERK12PackedVertexLb0EEC2B8ue170006IS3_vEEOT_, symObjAddr: 0x7370, symBinAddr: 0x100016148, symSize: 0x20 }
...
